
ds18B20_1_wire.elf:     file format elf32-avr

Sections:
Idx Name          Size      VMA       LMA       File off  Algn
  0 .text         00000f50  00000000  00000000  00000074  2**1
                  CONTENTS, ALLOC, LOAD, READONLY, CODE
  1 .data         00000116  00800060  00000f50  00000fc4  2**0
                  CONTENTS, ALLOC, LOAD, DATA
  2 .debug_aranges 000000a0  00000000  00000000  000010da  2**0
                  CONTENTS, READONLY, DEBUGGING
  3 .debug_pubnames 000000e2  00000000  00000000  0000117a  2**0
                  CONTENTS, READONLY, DEBUGGING
  4 .debug_info   00000ea8  00000000  00000000  0000125c  2**0
                  CONTENTS, READONLY, DEBUGGING
  5 .debug_abbrev 00000852  00000000  00000000  00002104  2**0
                  CONTENTS, READONLY, DEBUGGING
  6 .debug_line   000007f4  00000000  00000000  00002956  2**0
                  CONTENTS, READONLY, DEBUGGING
  7 .debug_frame  000000a0  00000000  00000000  0000314c  2**2
                  CONTENTS, READONLY, DEBUGGING
  8 .debug_str    0000022c  00000000  00000000  000031ec  2**0
                  CONTENTS, READONLY, DEBUGGING
  9 .debug_loc    0000042e  00000000  00000000  00003418  2**0
                  CONTENTS, READONLY, DEBUGGING
 10 .debug_ranges 00000050  00000000  00000000  00003846  2**0
                  CONTENTS, READONLY, DEBUGGING

Disassembly of section .text:

00000000 <__vectors>:
   0:	0c 94 a7 00 	jmp	0x14e	; 0x14e <__ctors_end>
   4:	0c 94 bc 00 	jmp	0x178	; 0x178 <__bad_interrupt>
   8:	0c 94 bc 00 	jmp	0x178	; 0x178 <__bad_interrupt>
   c:	0c 94 bc 00 	jmp	0x178	; 0x178 <__bad_interrupt>
  10:	0c 94 bc 00 	jmp	0x178	; 0x178 <__bad_interrupt>
  14:	0c 94 bc 00 	jmp	0x178	; 0x178 <__bad_interrupt>
  18:	0c 94 bc 00 	jmp	0x178	; 0x178 <__bad_interrupt>
  1c:	0c 94 bc 00 	jmp	0x178	; 0x178 <__bad_interrupt>
  20:	0c 94 bc 00 	jmp	0x178	; 0x178 <__bad_interrupt>
  24:	0c 94 bc 00 	jmp	0x178	; 0x178 <__bad_interrupt>
  28:	0c 94 bc 00 	jmp	0x178	; 0x178 <__bad_interrupt>
  2c:	0c 94 bc 00 	jmp	0x178	; 0x178 <__bad_interrupt>
  30:	0c 94 bc 00 	jmp	0x178	; 0x178 <__bad_interrupt>
  34:	0c 94 bc 00 	jmp	0x178	; 0x178 <__bad_interrupt>
  38:	0c 94 bc 00 	jmp	0x178	; 0x178 <__bad_interrupt>
  3c:	0c 94 bc 00 	jmp	0x178	; 0x178 <__bad_interrupt>
  40:	0c 94 bc 00 	jmp	0x178	; 0x178 <__bad_interrupt>
  44:	0c 94 bc 00 	jmp	0x178	; 0x178 <__bad_interrupt>
  48:	0c 94 bc 00 	jmp	0x178	; 0x178 <__bad_interrupt>
  4c:	0c 94 bc 00 	jmp	0x178	; 0x178 <__bad_interrupt>
  50:	0c 94 bc 00 	jmp	0x178	; 0x178 <__bad_interrupt>
  54:	00 40       	sbci	r16, 0x00	; 0
  56:	7a 10       	cpse	r7, r10
  58:	f3 5a       	subi	r31, 0xA3	; 163
  5a:	00 a0       	ldd	r0, Z+32	; 0x20
  5c:	72 4e       	sbci	r23, 0xE2	; 226
  5e:	18 09       	sbc	r17, r8
  60:	00 10       	cpse	r0, r0
  62:	a5 d4       	rcall	.+2378   	; 0x9ae <lcd_curcor_off+0x4>
  64:	e8 00       	.word	0x00e8	; ????
  66:	00 e8       	ldi	r16, 0x80	; 128
  68:	76 48       	sbci	r23, 0x86	; 134
  6a:	17 00       	.word	0x0017	; ????
  6c:	00 e4       	ldi	r16, 0x40	; 64
  6e:	0b 54       	subi	r16, 0x4B	; 75
  70:	02 00       	.word	0x0002	; ????
  72:	00 ca       	rjmp	.-3072   	; 0xfffff474 <__eeprom_end+0xff7ef474>
  74:	9a 3b       	cpi	r25, 0xBA	; 186
  76:	00 00       	nop
  78:	00 e1       	ldi	r16, 0x10	; 16
  7a:	f5 05       	cpc	r31, r5
  7c:	00 00       	nop
  7e:	80 96       	adiw	r24, 0x20	; 32
  80:	98 00       	.word	0x0098	; ????
  82:	00 00       	nop
  84:	40 42       	sbci	r20, 0x20	; 32
  86:	0f 00       	.word	0x000f	; ????
  88:	00 00       	nop
  8a:	a0 86       	std	Z+8, r10	; 0x08
  8c:	01 00       	.word	0x0001	; ????
  8e:	00 00       	nop
  90:	10 27       	eor	r17, r16
  92:	00 00       	nop
  94:	00 00       	nop
  96:	e8 03       	fmulsu	r22, r16
  98:	00 00       	nop
  9a:	00 00       	nop
  9c:	64 00       	.word	0x0064	; ????
  9e:	00 00       	nop
  a0:	00 00       	nop
  a2:	0a 00       	.word	0x000a	; ????
  a4:	00 00       	nop
  a6:	00 00       	nop
  a8:	01 00       	.word	0x0001	; ????
  aa:	00 00       	nop
  ac:	00 00       	nop
  ae:	2c 76       	andi	r18, 0x6C	; 108
  b0:	d8 88       	ldd	r13, Y+16	; 0x10
  b2:	dc 67       	ori	r29, 0x7C	; 124
  b4:	4f 08       	sbc	r4, r15
  b6:	23 df       	rcall	.-442    	; 0xfffffefe <__eeprom_end+0xff7efefe>
  b8:	c1 df       	rcall	.-126    	; 0x3c <__CCP__+0x8>
  ba:	ae 59       	subi	r26, 0x9E	; 158
  bc:	e1 b1       	in	r30, 0x01	; 1
  be:	b7 96       	adiw	r30, 0x27	; 39
  c0:	e5 e3       	ldi	r30, 0x35	; 53
  c2:	e4 53       	subi	r30, 0x34	; 52
  c4:	c6 3a       	cpi	r28, 0xA6	; 166
  c6:	e6 51       	subi	r30, 0x16	; 22
  c8:	99 76       	andi	r25, 0x69	; 105
  ca:	96 e8       	ldi	r25, 0x86	; 134
  cc:	e6 c2       	rjmp	.+1484   	; 0x69a <__unpack_f+0x26>
  ce:	84 26       	eor	r8, r20
  d0:	eb 89       	ldd	r30, Y+19	; 0x13
  d2:	8c 9b       	sbis	0x11, 4	; 17
  d4:	62 ed       	ldi	r22, 0xD2	; 210
  d6:	40 7c       	andi	r20, 0xC0	; 192
  d8:	6f fc       	.word	0xfc6f	; ????
  da:	ef bc       	out	0x2f, r14	; 47
  dc:	9c 9f       	mul	r25, r28
  de:	40 f2       	brcs	.-112    	; 0x70 <__SREG__+0x31>
  e0:	ba a5       	ldd	r27, Y+42	; 0x2a
  e2:	6f a5       	ldd	r22, Y+47	; 0x2f
  e4:	f4 90       	lpm	r15, Z+
  e6:	05 5a       	subi	r16, 0xA5	; 165
  e8:	2a f7       	brpl	.-54     	; 0xb4 <__SREG__+0x75>
  ea:	5c 93       	st	X, r21
  ec:	6b 6c       	ori	r22, 0xCB	; 203
  ee:	f9 67       	ori	r31, 0x79	; 121
  f0:	6d c1       	rjmp	.+730    	; 0x3cc <__floatsisf+0x5c>
  f2:	1b fc       	.word	0xfc1b	; ????
  f4:	e0 e4       	ldi	r30, 0x40	; 64
  f6:	0d 47       	sbci	r16, 0x7D	; 125
  f8:	fe f5       	brtc	.+126    	; 0x178 <__bad_interrupt>
  fa:	20 e6       	ldi	r18, 0x60	; 96
  fc:	b5 00       	.word	0x00b5	; ????
  fe:	d0 ed       	ldi	r29, 0xD0	; 208
 100:	90 2e       	mov	r9, r16
 102:	03 00       	.word	0x0003	; ????
 104:	94 35       	cpi	r25, 0x54	; 84
 106:	77 05       	cpc	r23, r7
 108:	00 80       	ld	r0, Z
 10a:	84 1e       	adc	r8, r20
 10c:	08 00       	.word	0x0008	; ????
 10e:	00 20       	and	r0, r0
 110:	4e 0a       	sbc	r4, r30
 112:	00 00       	nop
 114:	00 c8       	rjmp	.-4096   	; 0xfffff116 <__eeprom_end+0xff7ef116>
 116:	0c 33       	cpi	r16, 0x3C	; 60
 118:	33 33       	cpi	r19, 0x33	; 51
 11a:	33 0f       	add	r19, r19
 11c:	98 6e       	ori	r25, 0xE8	; 232
 11e:	12 83       	std	Z+2, r17	; 0x02
 120:	11 41       	sbci	r17, 0x11	; 17
 122:	ef 8d       	ldd	r30, Y+31	; 0x1f
 124:	21 14       	cp	r2, r1
 126:	89 3b       	cpi	r24, 0xB9	; 185
 128:	e6 55       	subi	r30, 0x56	; 86
 12a:	16 cf       	rjmp	.-468    	; 0xffffff58 <__eeprom_end+0xff7eff58>
 12c:	fe e6       	ldi	r31, 0x6E	; 110
 12e:	db 18       	sub	r13, r11
 130:	d1 84       	ldd	r13, Z+9	; 0x09
 132:	4b 38       	cpi	r20, 0x8B	; 139
 134:	1b f7       	brvc	.-58     	; 0xfc <__SREG__+0xbd>
 136:	7c 1d       	adc	r23, r12
 138:	90 1d       	adc	r25, r0
 13a:	a4 bb       	out	0x14, r26	; 20
 13c:	e4 24       	eor	r14, r4
 13e:	20 32       	cpi	r18, 0x20	; 32
 140:	84 72       	andi	r24, 0x24	; 36
 142:	5e 22       	and	r5, r30
 144:	81 00       	.word	0x0081	; ????
 146:	c9 f1       	breq	.+114    	; 0x1ba <__mulsf3+0x3e>
 148:	24 ec       	ldi	r18, 0xC4	; 196
 14a:	a1 e5       	ldi	r26, 0x51	; 81
 14c:	3d 27       	eor	r19, r29

0000014e <__ctors_end>:
 14e:	11 24       	eor	r1, r1
 150:	1f be       	out	0x3f, r1	; 63
 152:	cf e5       	ldi	r28, 0x5F	; 95
 154:	d8 e0       	ldi	r29, 0x08	; 8
 156:	de bf       	out	0x3e, r29	; 62
 158:	cd bf       	out	0x3d, r28	; 61

0000015a <__do_copy_data>:
 15a:	11 e0       	ldi	r17, 0x01	; 1
 15c:	a0 e6       	ldi	r26, 0x60	; 96
 15e:	b0 e0       	ldi	r27, 0x00	; 0
 160:	e0 e5       	ldi	r30, 0x50	; 80
 162:	ff e0       	ldi	r31, 0x0F	; 15
 164:	02 c0       	rjmp	.+4      	; 0x16a <.do_copy_data_start>

00000166 <.do_copy_data_loop>:
 166:	05 90       	lpm	r0, Z+
 168:	0d 92       	st	X+, r0

0000016a <.do_copy_data_start>:
 16a:	a6 37       	cpi	r26, 0x76	; 118
 16c:	b1 07       	cpc	r27, r17
 16e:	d9 f7       	brne	.-10     	; 0x166 <.do_copy_data_loop>
 170:	0e 94 dd 04 	call	0x9ba	; 0x9ba <main>
 174:	0c 94 a6 07 	jmp	0xf4c	; 0xf4c <_exit>

00000178 <__bad_interrupt>:
 178:	0c 94 00 00 	jmp	0	; 0x0 <__vectors>

0000017c <__mulsf3>:
 17c:	a0 e2       	ldi	r26, 0x20	; 32
 17e:	b0 e0       	ldi	r27, 0x00	; 0
 180:	e4 ec       	ldi	r30, 0xC4	; 196
 182:	f0 e0       	ldi	r31, 0x00	; 0
 184:	0c 94 14 05 	jmp	0xa28	; 0xa28 <__prologue_saves__>
 188:	69 83       	std	Y+1, r22	; 0x01
 18a:	7a 83       	std	Y+2, r23	; 0x02
 18c:	8b 83       	std	Y+3, r24	; 0x03
 18e:	9c 83       	std	Y+4, r25	; 0x04
 190:	2d 83       	std	Y+5, r18	; 0x05
 192:	3e 83       	std	Y+6, r19	; 0x06
 194:	4f 83       	std	Y+7, r20	; 0x07
 196:	58 87       	std	Y+8, r21	; 0x08
 198:	ce 01       	movw	r24, r28
 19a:	01 96       	adiw	r24, 0x01	; 1
 19c:	be 01       	movw	r22, r28
 19e:	67 5f       	subi	r22, 0xF7	; 247
 1a0:	7f 4f       	sbci	r23, 0xFF	; 255
 1a2:	0e 94 3a 03 	call	0x674	; 0x674 <__unpack_f>
 1a6:	ce 01       	movw	r24, r28
 1a8:	05 96       	adiw	r24, 0x05	; 5
 1aa:	be 01       	movw	r22, r28
 1ac:	6f 5e       	subi	r22, 0xEF	; 239
 1ae:	7f 4f       	sbci	r23, 0xFF	; 255
 1b0:	0e 94 3a 03 	call	0x674	; 0x674 <__unpack_f>
 1b4:	99 85       	ldd	r25, Y+9	; 0x09
 1b6:	92 30       	cpi	r25, 0x02	; 2
 1b8:	88 f0       	brcs	.+34     	; 0x1dc <__mulsf3+0x60>
 1ba:	89 89       	ldd	r24, Y+17	; 0x11
 1bc:	82 30       	cpi	r24, 0x02	; 2
 1be:	c8 f0       	brcs	.+50     	; 0x1f2 <__mulsf3+0x76>
 1c0:	94 30       	cpi	r25, 0x04	; 4
 1c2:	19 f4       	brne	.+6      	; 0x1ca <__mulsf3+0x4e>
 1c4:	82 30       	cpi	r24, 0x02	; 2
 1c6:	51 f4       	brne	.+20     	; 0x1dc <__mulsf3+0x60>
 1c8:	04 c0       	rjmp	.+8      	; 0x1d2 <__mulsf3+0x56>
 1ca:	84 30       	cpi	r24, 0x04	; 4
 1cc:	29 f4       	brne	.+10     	; 0x1d8 <__mulsf3+0x5c>
 1ce:	92 30       	cpi	r25, 0x02	; 2
 1d0:	81 f4       	brne	.+32     	; 0x1f2 <__mulsf3+0x76>
 1d2:	8d e6       	ldi	r24, 0x6D	; 109
 1d4:	90 e0       	ldi	r25, 0x00	; 0
 1d6:	c6 c0       	rjmp	.+396    	; 0x364 <__mulsf3+0x1e8>
 1d8:	92 30       	cpi	r25, 0x02	; 2
 1da:	49 f4       	brne	.+18     	; 0x1ee <__mulsf3+0x72>
 1dc:	20 e0       	ldi	r18, 0x00	; 0
 1de:	9a 85       	ldd	r25, Y+10	; 0x0a
 1e0:	8a 89       	ldd	r24, Y+18	; 0x12
 1e2:	98 13       	cpse	r25, r24
 1e4:	21 e0       	ldi	r18, 0x01	; 1
 1e6:	2a 87       	std	Y+10, r18	; 0x0a
 1e8:	ce 01       	movw	r24, r28
 1ea:	09 96       	adiw	r24, 0x09	; 9
 1ec:	bb c0       	rjmp	.+374    	; 0x364 <__mulsf3+0x1e8>
 1ee:	82 30       	cpi	r24, 0x02	; 2
 1f0:	49 f4       	brne	.+18     	; 0x204 <__mulsf3+0x88>
 1f2:	20 e0       	ldi	r18, 0x00	; 0
 1f4:	9a 85       	ldd	r25, Y+10	; 0x0a
 1f6:	8a 89       	ldd	r24, Y+18	; 0x12
 1f8:	98 13       	cpse	r25, r24
 1fa:	21 e0       	ldi	r18, 0x01	; 1
 1fc:	2a 8b       	std	Y+18, r18	; 0x12
 1fe:	ce 01       	movw	r24, r28
 200:	41 96       	adiw	r24, 0x11	; 17
 202:	b0 c0       	rjmp	.+352    	; 0x364 <__mulsf3+0x1e8>
 204:	2d 84       	ldd	r2, Y+13	; 0x0d
 206:	3e 84       	ldd	r3, Y+14	; 0x0e
 208:	4f 84       	ldd	r4, Y+15	; 0x0f
 20a:	58 88       	ldd	r5, Y+16	; 0x10
 20c:	6d 88       	ldd	r6, Y+21	; 0x15
 20e:	7e 88       	ldd	r7, Y+22	; 0x16
 210:	8f 88       	ldd	r8, Y+23	; 0x17
 212:	98 8c       	ldd	r9, Y+24	; 0x18
 214:	ee 24       	eor	r14, r14
 216:	ff 24       	eor	r15, r15
 218:	87 01       	movw	r16, r14
 21a:	aa 24       	eor	r10, r10
 21c:	bb 24       	eor	r11, r11
 21e:	65 01       	movw	r12, r10
 220:	40 e0       	ldi	r20, 0x00	; 0
 222:	50 e0       	ldi	r21, 0x00	; 0
 224:	60 e0       	ldi	r22, 0x00	; 0
 226:	70 e0       	ldi	r23, 0x00	; 0
 228:	e0 e0       	ldi	r30, 0x00	; 0
 22a:	f0 e0       	ldi	r31, 0x00	; 0
 22c:	c1 01       	movw	r24, r2
 22e:	81 70       	andi	r24, 0x01	; 1
 230:	90 70       	andi	r25, 0x00	; 0
 232:	89 2b       	or	r24, r25
 234:	e9 f0       	breq	.+58     	; 0x270 <__mulsf3+0xf4>
 236:	e6 0c       	add	r14, r6
 238:	f7 1c       	adc	r15, r7
 23a:	08 1d       	adc	r16, r8
 23c:	19 1d       	adc	r17, r9
 23e:	9a 01       	movw	r18, r20
 240:	ab 01       	movw	r20, r22
 242:	2a 0d       	add	r18, r10
 244:	3b 1d       	adc	r19, r11
 246:	4c 1d       	adc	r20, r12
 248:	5d 1d       	adc	r21, r13
 24a:	80 e0       	ldi	r24, 0x00	; 0
 24c:	90 e0       	ldi	r25, 0x00	; 0
 24e:	a0 e0       	ldi	r26, 0x00	; 0
 250:	b0 e0       	ldi	r27, 0x00	; 0
 252:	e6 14       	cp	r14, r6
 254:	f7 04       	cpc	r15, r7
 256:	08 05       	cpc	r16, r8
 258:	19 05       	cpc	r17, r9
 25a:	20 f4       	brcc	.+8      	; 0x264 <__mulsf3+0xe8>
 25c:	81 e0       	ldi	r24, 0x01	; 1
 25e:	90 e0       	ldi	r25, 0x00	; 0
 260:	a0 e0       	ldi	r26, 0x00	; 0
 262:	b0 e0       	ldi	r27, 0x00	; 0
 264:	ba 01       	movw	r22, r20
 266:	a9 01       	movw	r20, r18
 268:	48 0f       	add	r20, r24
 26a:	59 1f       	adc	r21, r25
 26c:	6a 1f       	adc	r22, r26
 26e:	7b 1f       	adc	r23, r27
 270:	aa 0c       	add	r10, r10
 272:	bb 1c       	adc	r11, r11
 274:	cc 1c       	adc	r12, r12
 276:	dd 1c       	adc	r13, r13
 278:	97 fe       	sbrs	r9, 7
 27a:	08 c0       	rjmp	.+16     	; 0x28c <__mulsf3+0x110>
 27c:	81 e0       	ldi	r24, 0x01	; 1
 27e:	90 e0       	ldi	r25, 0x00	; 0
 280:	a0 e0       	ldi	r26, 0x00	; 0
 282:	b0 e0       	ldi	r27, 0x00	; 0
 284:	a8 2a       	or	r10, r24
 286:	b9 2a       	or	r11, r25
 288:	ca 2a       	or	r12, r26
 28a:	db 2a       	or	r13, r27
 28c:	31 96       	adiw	r30, 0x01	; 1
 28e:	e0 32       	cpi	r30, 0x20	; 32
 290:	f1 05       	cpc	r31, r1
 292:	49 f0       	breq	.+18     	; 0x2a6 <__mulsf3+0x12a>
 294:	66 0c       	add	r6, r6
 296:	77 1c       	adc	r7, r7
 298:	88 1c       	adc	r8, r8
 29a:	99 1c       	adc	r9, r9
 29c:	56 94       	lsr	r5
 29e:	47 94       	ror	r4
 2a0:	37 94       	ror	r3
 2a2:	27 94       	ror	r2
 2a4:	c3 cf       	rjmp	.-122    	; 0x22c <__mulsf3+0xb0>
 2a6:	fa 85       	ldd	r31, Y+10	; 0x0a
 2a8:	ea 89       	ldd	r30, Y+18	; 0x12
 2aa:	2b 89       	ldd	r18, Y+19	; 0x13
 2ac:	3c 89       	ldd	r19, Y+20	; 0x14
 2ae:	8b 85       	ldd	r24, Y+11	; 0x0b
 2b0:	9c 85       	ldd	r25, Y+12	; 0x0c
 2b2:	28 0f       	add	r18, r24
 2b4:	39 1f       	adc	r19, r25
 2b6:	2e 5f       	subi	r18, 0xFE	; 254
 2b8:	3f 4f       	sbci	r19, 0xFF	; 255
 2ba:	17 c0       	rjmp	.+46     	; 0x2ea <__mulsf3+0x16e>
 2bc:	ca 01       	movw	r24, r20
 2be:	81 70       	andi	r24, 0x01	; 1
 2c0:	90 70       	andi	r25, 0x00	; 0
 2c2:	89 2b       	or	r24, r25
 2c4:	61 f0       	breq	.+24     	; 0x2de <__mulsf3+0x162>
 2c6:	16 95       	lsr	r17
 2c8:	07 95       	ror	r16
 2ca:	f7 94       	ror	r15
 2cc:	e7 94       	ror	r14
 2ce:	80 e0       	ldi	r24, 0x00	; 0
 2d0:	90 e0       	ldi	r25, 0x00	; 0
 2d2:	a0 e0       	ldi	r26, 0x00	; 0
 2d4:	b0 e8       	ldi	r27, 0x80	; 128
 2d6:	e8 2a       	or	r14, r24
 2d8:	f9 2a       	or	r15, r25
 2da:	0a 2b       	or	r16, r26
 2dc:	1b 2b       	or	r17, r27
 2de:	76 95       	lsr	r23
 2e0:	67 95       	ror	r22
 2e2:	57 95       	ror	r21
 2e4:	47 95       	ror	r20
 2e6:	2f 5f       	subi	r18, 0xFF	; 255
 2e8:	3f 4f       	sbci	r19, 0xFF	; 255
 2ea:	77 fd       	sbrc	r23, 7
 2ec:	e7 cf       	rjmp	.-50     	; 0x2bc <__mulsf3+0x140>
 2ee:	0c c0       	rjmp	.+24     	; 0x308 <__mulsf3+0x18c>
 2f0:	44 0f       	add	r20, r20
 2f2:	55 1f       	adc	r21, r21
 2f4:	66 1f       	adc	r22, r22
 2f6:	77 1f       	adc	r23, r23
 2f8:	17 fd       	sbrc	r17, 7
 2fa:	41 60       	ori	r20, 0x01	; 1
 2fc:	ee 0c       	add	r14, r14
 2fe:	ff 1c       	adc	r15, r15
 300:	00 1f       	adc	r16, r16
 302:	11 1f       	adc	r17, r17
 304:	21 50       	subi	r18, 0x01	; 1
 306:	30 40       	sbci	r19, 0x00	; 0
 308:	40 30       	cpi	r20, 0x00	; 0
 30a:	90 e0       	ldi	r25, 0x00	; 0
 30c:	59 07       	cpc	r21, r25
 30e:	90 e0       	ldi	r25, 0x00	; 0
 310:	69 07       	cpc	r22, r25
 312:	90 e4       	ldi	r25, 0x40	; 64
 314:	79 07       	cpc	r23, r25
 316:	60 f3       	brcs	.-40     	; 0x2f0 <__mulsf3+0x174>
 318:	2b 8f       	std	Y+27, r18	; 0x1b
 31a:	3c 8f       	std	Y+28, r19	; 0x1c
 31c:	db 01       	movw	r26, r22
 31e:	ca 01       	movw	r24, r20
 320:	8f 77       	andi	r24, 0x7F	; 127
 322:	90 70       	andi	r25, 0x00	; 0
 324:	a0 70       	andi	r26, 0x00	; 0
 326:	b0 70       	andi	r27, 0x00	; 0
 328:	80 34       	cpi	r24, 0x40	; 64
 32a:	91 05       	cpc	r25, r1
 32c:	a1 05       	cpc	r26, r1
 32e:	b1 05       	cpc	r27, r1
 330:	61 f4       	brne	.+24     	; 0x34a <__mulsf3+0x1ce>
 332:	47 fd       	sbrc	r20, 7
 334:	0a c0       	rjmp	.+20     	; 0x34a <__mulsf3+0x1ce>
 336:	e1 14       	cp	r14, r1
 338:	f1 04       	cpc	r15, r1
 33a:	01 05       	cpc	r16, r1
 33c:	11 05       	cpc	r17, r1
 33e:	29 f0       	breq	.+10     	; 0x34a <__mulsf3+0x1ce>
 340:	40 5c       	subi	r20, 0xC0	; 192
 342:	5f 4f       	sbci	r21, 0xFF	; 255
 344:	6f 4f       	sbci	r22, 0xFF	; 255
 346:	7f 4f       	sbci	r23, 0xFF	; 255
 348:	40 78       	andi	r20, 0x80	; 128
 34a:	1a 8e       	std	Y+26, r1	; 0x1a
 34c:	fe 17       	cp	r31, r30
 34e:	11 f0       	breq	.+4      	; 0x354 <__mulsf3+0x1d8>
 350:	81 e0       	ldi	r24, 0x01	; 1
 352:	8a 8f       	std	Y+26, r24	; 0x1a
 354:	4d 8f       	std	Y+29, r20	; 0x1d
 356:	5e 8f       	std	Y+30, r21	; 0x1e
 358:	6f 8f       	std	Y+31, r22	; 0x1f
 35a:	78 a3       	std	Y+32, r23	; 0x20
 35c:	83 e0       	ldi	r24, 0x03	; 3
 35e:	89 8f       	std	Y+25, r24	; 0x19
 360:	ce 01       	movw	r24, r28
 362:	49 96       	adiw	r24, 0x19	; 25
 364:	0e 94 65 02 	call	0x4ca	; 0x4ca <__pack_f>
 368:	a0 96       	adiw	r28, 0x20	; 32
 36a:	e2 e1       	ldi	r30, 0x12	; 18
 36c:	0c 94 30 05 	jmp	0xa60	; 0xa60 <__epilogue_restores__>

00000370 <__floatsisf>:
 370:	a8 e0       	ldi	r26, 0x08	; 8
 372:	b0 e0       	ldi	r27, 0x00	; 0
 374:	ee eb       	ldi	r30, 0xBE	; 190
 376:	f1 e0       	ldi	r31, 0x01	; 1
 378:	0c 94 1d 05 	jmp	0xa3a	; 0xa3a <__prologue_saves__+0x12>
 37c:	9b 01       	movw	r18, r22
 37e:	ac 01       	movw	r20, r24
 380:	83 e0       	ldi	r24, 0x03	; 3
 382:	89 83       	std	Y+1, r24	; 0x01
 384:	da 01       	movw	r26, r20
 386:	c9 01       	movw	r24, r18
 388:	88 27       	eor	r24, r24
 38a:	b7 fd       	sbrc	r27, 7
 38c:	83 95       	inc	r24
 38e:	99 27       	eor	r25, r25
 390:	aa 27       	eor	r26, r26
 392:	bb 27       	eor	r27, r27
 394:	b8 2e       	mov	r11, r24
 396:	21 15       	cp	r18, r1
 398:	31 05       	cpc	r19, r1
 39a:	41 05       	cpc	r20, r1
 39c:	51 05       	cpc	r21, r1
 39e:	19 f4       	brne	.+6      	; 0x3a6 <__floatsisf+0x36>
 3a0:	82 e0       	ldi	r24, 0x02	; 2
 3a2:	89 83       	std	Y+1, r24	; 0x01
 3a4:	3a c0       	rjmp	.+116    	; 0x41a <__floatsisf+0xaa>
 3a6:	88 23       	and	r24, r24
 3a8:	a9 f0       	breq	.+42     	; 0x3d4 <__floatsisf+0x64>
 3aa:	20 30       	cpi	r18, 0x00	; 0
 3ac:	80 e0       	ldi	r24, 0x00	; 0
 3ae:	38 07       	cpc	r19, r24
 3b0:	80 e0       	ldi	r24, 0x00	; 0
 3b2:	48 07       	cpc	r20, r24
 3b4:	80 e8       	ldi	r24, 0x80	; 128
 3b6:	58 07       	cpc	r21, r24
 3b8:	29 f4       	brne	.+10     	; 0x3c4 <__floatsisf+0x54>
 3ba:	60 e0       	ldi	r22, 0x00	; 0
 3bc:	70 e0       	ldi	r23, 0x00	; 0
 3be:	80 e0       	ldi	r24, 0x00	; 0
 3c0:	9f ec       	ldi	r25, 0xCF	; 207
 3c2:	30 c0       	rjmp	.+96     	; 0x424 <__floatsisf+0xb4>
 3c4:	ee 24       	eor	r14, r14
 3c6:	ff 24       	eor	r15, r15
 3c8:	87 01       	movw	r16, r14
 3ca:	e2 1a       	sub	r14, r18
 3cc:	f3 0a       	sbc	r15, r19
 3ce:	04 0b       	sbc	r16, r20
 3d0:	15 0b       	sbc	r17, r21
 3d2:	02 c0       	rjmp	.+4      	; 0x3d8 <__floatsisf+0x68>
 3d4:	79 01       	movw	r14, r18
 3d6:	8a 01       	movw	r16, r20
 3d8:	8e e1       	ldi	r24, 0x1E	; 30
 3da:	c8 2e       	mov	r12, r24
 3dc:	d1 2c       	mov	r13, r1
 3de:	dc 82       	std	Y+4, r13	; 0x04
 3e0:	cb 82       	std	Y+3, r12	; 0x03
 3e2:	ed 82       	std	Y+5, r14	; 0x05
 3e4:	fe 82       	std	Y+6, r15	; 0x06
 3e6:	0f 83       	std	Y+7, r16	; 0x07
 3e8:	18 87       	std	Y+8, r17	; 0x08
 3ea:	c8 01       	movw	r24, r16
 3ec:	b7 01       	movw	r22, r14
 3ee:	0e 94 16 02 	call	0x42c	; 0x42c <__clzsi2>
 3f2:	01 97       	sbiw	r24, 0x01	; 1
 3f4:	18 16       	cp	r1, r24
 3f6:	19 06       	cpc	r1, r25
 3f8:	84 f4       	brge	.+32     	; 0x41a <__floatsisf+0xaa>
 3fa:	08 2e       	mov	r0, r24
 3fc:	04 c0       	rjmp	.+8      	; 0x406 <__floatsisf+0x96>
 3fe:	ee 0c       	add	r14, r14
 400:	ff 1c       	adc	r15, r15
 402:	00 1f       	adc	r16, r16
 404:	11 1f       	adc	r17, r17
 406:	0a 94       	dec	r0
 408:	d2 f7       	brpl	.-12     	; 0x3fe <__floatsisf+0x8e>
 40a:	ed 82       	std	Y+5, r14	; 0x05
 40c:	fe 82       	std	Y+6, r15	; 0x06
 40e:	0f 83       	std	Y+7, r16	; 0x07
 410:	18 87       	std	Y+8, r17	; 0x08
 412:	c8 1a       	sub	r12, r24
 414:	d9 0a       	sbc	r13, r25
 416:	dc 82       	std	Y+4, r13	; 0x04
 418:	cb 82       	std	Y+3, r12	; 0x03
 41a:	ba 82       	std	Y+2, r11	; 0x02
 41c:	ce 01       	movw	r24, r28
 41e:	01 96       	adiw	r24, 0x01	; 1
 420:	0e 94 65 02 	call	0x4ca	; 0x4ca <__pack_f>
 424:	28 96       	adiw	r28, 0x08	; 8
 426:	e9 e0       	ldi	r30, 0x09	; 9
 428:	0c 94 39 05 	jmp	0xa72	; 0xa72 <__epilogue_restores__+0x12>

0000042c <__clzsi2>:
 42c:	ef 92       	push	r14
 42e:	ff 92       	push	r15
 430:	0f 93       	push	r16
 432:	1f 93       	push	r17
 434:	7b 01       	movw	r14, r22
 436:	8c 01       	movw	r16, r24
 438:	80 e0       	ldi	r24, 0x00	; 0
 43a:	e8 16       	cp	r14, r24
 43c:	80 e0       	ldi	r24, 0x00	; 0
 43e:	f8 06       	cpc	r15, r24
 440:	81 e0       	ldi	r24, 0x01	; 1
 442:	08 07       	cpc	r16, r24
 444:	80 e0       	ldi	r24, 0x00	; 0
 446:	18 07       	cpc	r17, r24
 448:	88 f4       	brcc	.+34     	; 0x46c <__clzsi2+0x40>
 44a:	8f ef       	ldi	r24, 0xFF	; 255
 44c:	e8 16       	cp	r14, r24
 44e:	f1 04       	cpc	r15, r1
 450:	01 05       	cpc	r16, r1
 452:	11 05       	cpc	r17, r1
 454:	31 f0       	breq	.+12     	; 0x462 <__clzsi2+0x36>
 456:	28 f0       	brcs	.+10     	; 0x462 <__clzsi2+0x36>
 458:	88 e0       	ldi	r24, 0x08	; 8
 45a:	90 e0       	ldi	r25, 0x00	; 0
 45c:	a0 e0       	ldi	r26, 0x00	; 0
 45e:	b0 e0       	ldi	r27, 0x00	; 0
 460:	17 c0       	rjmp	.+46     	; 0x490 <__clzsi2+0x64>
 462:	80 e0       	ldi	r24, 0x00	; 0
 464:	90 e0       	ldi	r25, 0x00	; 0
 466:	a0 e0       	ldi	r26, 0x00	; 0
 468:	b0 e0       	ldi	r27, 0x00	; 0
 46a:	12 c0       	rjmp	.+36     	; 0x490 <__clzsi2+0x64>
 46c:	80 e0       	ldi	r24, 0x00	; 0
 46e:	e8 16       	cp	r14, r24
 470:	80 e0       	ldi	r24, 0x00	; 0
 472:	f8 06       	cpc	r15, r24
 474:	80 e0       	ldi	r24, 0x00	; 0
 476:	08 07       	cpc	r16, r24
 478:	81 e0       	ldi	r24, 0x01	; 1
 47a:	18 07       	cpc	r17, r24
 47c:	28 f0       	brcs	.+10     	; 0x488 <__clzsi2+0x5c>
 47e:	88 e1       	ldi	r24, 0x18	; 24
 480:	90 e0       	ldi	r25, 0x00	; 0
 482:	a0 e0       	ldi	r26, 0x00	; 0
 484:	b0 e0       	ldi	r27, 0x00	; 0
 486:	04 c0       	rjmp	.+8      	; 0x490 <__clzsi2+0x64>
 488:	80 e1       	ldi	r24, 0x10	; 16
 48a:	90 e0       	ldi	r25, 0x00	; 0
 48c:	a0 e0       	ldi	r26, 0x00	; 0
 48e:	b0 e0       	ldi	r27, 0x00	; 0
 490:	20 e2       	ldi	r18, 0x20	; 32
 492:	30 e0       	ldi	r19, 0x00	; 0
 494:	40 e0       	ldi	r20, 0x00	; 0
 496:	50 e0       	ldi	r21, 0x00	; 0
 498:	28 1b       	sub	r18, r24
 49a:	39 0b       	sbc	r19, r25
 49c:	4a 0b       	sbc	r20, r26
 49e:	5b 0b       	sbc	r21, r27
 4a0:	04 c0       	rjmp	.+8      	; 0x4aa <__clzsi2+0x7e>
 4a2:	16 95       	lsr	r17
 4a4:	07 95       	ror	r16
 4a6:	f7 94       	ror	r15
 4a8:	e7 94       	ror	r14
 4aa:	8a 95       	dec	r24
 4ac:	d2 f7       	brpl	.-12     	; 0x4a2 <__clzsi2+0x76>
 4ae:	f7 01       	movw	r30, r14
 4b0:	eb 58       	subi	r30, 0x8B	; 139
 4b2:	ff 4f       	sbci	r31, 0xFF	; 255
 4b4:	80 81       	ld	r24, Z
 4b6:	28 1b       	sub	r18, r24
 4b8:	31 09       	sbc	r19, r1
 4ba:	41 09       	sbc	r20, r1
 4bc:	51 09       	sbc	r21, r1
 4be:	c9 01       	movw	r24, r18
 4c0:	1f 91       	pop	r17
 4c2:	0f 91       	pop	r16
 4c4:	ff 90       	pop	r15
 4c6:	ef 90       	pop	r14
 4c8:	08 95       	ret

000004ca <__pack_f>:
 4ca:	df 92       	push	r13
 4cc:	ef 92       	push	r14
 4ce:	ff 92       	push	r15
 4d0:	0f 93       	push	r16
 4d2:	1f 93       	push	r17
 4d4:	fc 01       	movw	r30, r24
 4d6:	e4 80       	ldd	r14, Z+4	; 0x04
 4d8:	f5 80       	ldd	r15, Z+5	; 0x05
 4da:	06 81       	ldd	r16, Z+6	; 0x06
 4dc:	17 81       	ldd	r17, Z+7	; 0x07
 4de:	d1 80       	ldd	r13, Z+1	; 0x01
 4e0:	80 81       	ld	r24, Z
 4e2:	82 30       	cpi	r24, 0x02	; 2
 4e4:	48 f4       	brcc	.+18     	; 0x4f8 <__pack_f+0x2e>
 4e6:	80 e0       	ldi	r24, 0x00	; 0
 4e8:	90 e0       	ldi	r25, 0x00	; 0
 4ea:	a0 e1       	ldi	r26, 0x10	; 16
 4ec:	b0 e0       	ldi	r27, 0x00	; 0
 4ee:	e8 2a       	or	r14, r24
 4f0:	f9 2a       	or	r15, r25
 4f2:	0a 2b       	or	r16, r26
 4f4:	1b 2b       	or	r17, r27
 4f6:	a5 c0       	rjmp	.+330    	; 0x642 <__pack_f+0x178>
 4f8:	84 30       	cpi	r24, 0x04	; 4
 4fa:	09 f4       	brne	.+2      	; 0x4fe <__pack_f+0x34>
 4fc:	9f c0       	rjmp	.+318    	; 0x63c <__pack_f+0x172>
 4fe:	82 30       	cpi	r24, 0x02	; 2
 500:	21 f4       	brne	.+8      	; 0x50a <__pack_f+0x40>
 502:	ee 24       	eor	r14, r14
 504:	ff 24       	eor	r15, r15
 506:	87 01       	movw	r16, r14
 508:	05 c0       	rjmp	.+10     	; 0x514 <__pack_f+0x4a>
 50a:	e1 14       	cp	r14, r1
 50c:	f1 04       	cpc	r15, r1
 50e:	01 05       	cpc	r16, r1
 510:	11 05       	cpc	r17, r1
 512:	19 f4       	brne	.+6      	; 0x51a <__pack_f+0x50>
 514:	e0 e0       	ldi	r30, 0x00	; 0
 516:	f0 e0       	ldi	r31, 0x00	; 0
 518:	96 c0       	rjmp	.+300    	; 0x646 <__pack_f+0x17c>
 51a:	62 81       	ldd	r22, Z+2	; 0x02
 51c:	73 81       	ldd	r23, Z+3	; 0x03
 51e:	9f ef       	ldi	r25, 0xFF	; 255
 520:	62 38       	cpi	r22, 0x82	; 130
 522:	79 07       	cpc	r23, r25
 524:	0c f0       	brlt	.+2      	; 0x528 <__pack_f+0x5e>
 526:	5b c0       	rjmp	.+182    	; 0x5de <__pack_f+0x114>
 528:	22 e8       	ldi	r18, 0x82	; 130
 52a:	3f ef       	ldi	r19, 0xFF	; 255
 52c:	26 1b       	sub	r18, r22
 52e:	37 0b       	sbc	r19, r23
 530:	2a 31       	cpi	r18, 0x1A	; 26
 532:	31 05       	cpc	r19, r1
 534:	2c f0       	brlt	.+10     	; 0x540 <__pack_f+0x76>
 536:	20 e0       	ldi	r18, 0x00	; 0
 538:	30 e0       	ldi	r19, 0x00	; 0
 53a:	40 e0       	ldi	r20, 0x00	; 0
 53c:	50 e0       	ldi	r21, 0x00	; 0
 53e:	2a c0       	rjmp	.+84     	; 0x594 <__pack_f+0xca>
 540:	b8 01       	movw	r22, r16
 542:	a7 01       	movw	r20, r14
 544:	02 2e       	mov	r0, r18
 546:	04 c0       	rjmp	.+8      	; 0x550 <__pack_f+0x86>
 548:	76 95       	lsr	r23
 54a:	67 95       	ror	r22
 54c:	57 95       	ror	r21
 54e:	47 95       	ror	r20
 550:	0a 94       	dec	r0
 552:	d2 f7       	brpl	.-12     	; 0x548 <__pack_f+0x7e>
 554:	81 e0       	ldi	r24, 0x01	; 1
 556:	90 e0       	ldi	r25, 0x00	; 0
 558:	a0 e0       	ldi	r26, 0x00	; 0
 55a:	b0 e0       	ldi	r27, 0x00	; 0
 55c:	04 c0       	rjmp	.+8      	; 0x566 <__pack_f+0x9c>
 55e:	88 0f       	add	r24, r24
 560:	99 1f       	adc	r25, r25
 562:	aa 1f       	adc	r26, r26
 564:	bb 1f       	adc	r27, r27
 566:	2a 95       	dec	r18
 568:	d2 f7       	brpl	.-12     	; 0x55e <__pack_f+0x94>
 56a:	01 97       	sbiw	r24, 0x01	; 1
 56c:	a1 09       	sbc	r26, r1
 56e:	b1 09       	sbc	r27, r1
 570:	8e 21       	and	r24, r14
 572:	9f 21       	and	r25, r15
 574:	a0 23       	and	r26, r16
 576:	b1 23       	and	r27, r17
 578:	00 97       	sbiw	r24, 0x00	; 0
 57a:	a1 05       	cpc	r26, r1
 57c:	b1 05       	cpc	r27, r1
 57e:	21 f0       	breq	.+8      	; 0x588 <__pack_f+0xbe>
 580:	81 e0       	ldi	r24, 0x01	; 1
 582:	90 e0       	ldi	r25, 0x00	; 0
 584:	a0 e0       	ldi	r26, 0x00	; 0
 586:	b0 e0       	ldi	r27, 0x00	; 0
 588:	9a 01       	movw	r18, r20
 58a:	ab 01       	movw	r20, r22
 58c:	28 2b       	or	r18, r24
 58e:	39 2b       	or	r19, r25
 590:	4a 2b       	or	r20, r26
 592:	5b 2b       	or	r21, r27
 594:	da 01       	movw	r26, r20
 596:	c9 01       	movw	r24, r18
 598:	8f 77       	andi	r24, 0x7F	; 127
 59a:	90 70       	andi	r25, 0x00	; 0
 59c:	a0 70       	andi	r26, 0x00	; 0
 59e:	b0 70       	andi	r27, 0x00	; 0
 5a0:	80 34       	cpi	r24, 0x40	; 64
 5a2:	91 05       	cpc	r25, r1
 5a4:	a1 05       	cpc	r26, r1
 5a6:	b1 05       	cpc	r27, r1
 5a8:	39 f4       	brne	.+14     	; 0x5b8 <__pack_f+0xee>
 5aa:	27 ff       	sbrs	r18, 7
 5ac:	09 c0       	rjmp	.+18     	; 0x5c0 <__pack_f+0xf6>
 5ae:	20 5c       	subi	r18, 0xC0	; 192
 5b0:	3f 4f       	sbci	r19, 0xFF	; 255
 5b2:	4f 4f       	sbci	r20, 0xFF	; 255
 5b4:	5f 4f       	sbci	r21, 0xFF	; 255
 5b6:	04 c0       	rjmp	.+8      	; 0x5c0 <__pack_f+0xf6>
 5b8:	21 5c       	subi	r18, 0xC1	; 193
 5ba:	3f 4f       	sbci	r19, 0xFF	; 255
 5bc:	4f 4f       	sbci	r20, 0xFF	; 255
 5be:	5f 4f       	sbci	r21, 0xFF	; 255
 5c0:	e0 e0       	ldi	r30, 0x00	; 0
 5c2:	f0 e0       	ldi	r31, 0x00	; 0
 5c4:	20 30       	cpi	r18, 0x00	; 0
 5c6:	a0 e0       	ldi	r26, 0x00	; 0
 5c8:	3a 07       	cpc	r19, r26
 5ca:	a0 e0       	ldi	r26, 0x00	; 0
 5cc:	4a 07       	cpc	r20, r26
 5ce:	a0 e4       	ldi	r26, 0x40	; 64
 5d0:	5a 07       	cpc	r21, r26
 5d2:	10 f0       	brcs	.+4      	; 0x5d8 <__pack_f+0x10e>
 5d4:	e1 e0       	ldi	r30, 0x01	; 1
 5d6:	f0 e0       	ldi	r31, 0x00	; 0
 5d8:	79 01       	movw	r14, r18
 5da:	8a 01       	movw	r16, r20
 5dc:	27 c0       	rjmp	.+78     	; 0x62c <__pack_f+0x162>
 5de:	60 38       	cpi	r22, 0x80	; 128
 5e0:	71 05       	cpc	r23, r1
 5e2:	64 f5       	brge	.+88     	; 0x63c <__pack_f+0x172>
 5e4:	fb 01       	movw	r30, r22
 5e6:	e1 58       	subi	r30, 0x81	; 129
 5e8:	ff 4f       	sbci	r31, 0xFF	; 255
 5ea:	d8 01       	movw	r26, r16
 5ec:	c7 01       	movw	r24, r14
 5ee:	8f 77       	andi	r24, 0x7F	; 127
 5f0:	90 70       	andi	r25, 0x00	; 0
 5f2:	a0 70       	andi	r26, 0x00	; 0
 5f4:	b0 70       	andi	r27, 0x00	; 0
 5f6:	80 34       	cpi	r24, 0x40	; 64
 5f8:	91 05       	cpc	r25, r1
 5fa:	a1 05       	cpc	r26, r1
 5fc:	b1 05       	cpc	r27, r1
 5fe:	39 f4       	brne	.+14     	; 0x60e <__pack_f+0x144>
 600:	e7 fe       	sbrs	r14, 7
 602:	0d c0       	rjmp	.+26     	; 0x61e <__pack_f+0x154>
 604:	80 e4       	ldi	r24, 0x40	; 64
 606:	90 e0       	ldi	r25, 0x00	; 0
 608:	a0 e0       	ldi	r26, 0x00	; 0
 60a:	b0 e0       	ldi	r27, 0x00	; 0
 60c:	04 c0       	rjmp	.+8      	; 0x616 <__pack_f+0x14c>
 60e:	8f e3       	ldi	r24, 0x3F	; 63
 610:	90 e0       	ldi	r25, 0x00	; 0
 612:	a0 e0       	ldi	r26, 0x00	; 0
 614:	b0 e0       	ldi	r27, 0x00	; 0
 616:	e8 0e       	add	r14, r24
 618:	f9 1e       	adc	r15, r25
 61a:	0a 1f       	adc	r16, r26
 61c:	1b 1f       	adc	r17, r27
 61e:	17 ff       	sbrs	r17, 7
 620:	05 c0       	rjmp	.+10     	; 0x62c <__pack_f+0x162>
 622:	16 95       	lsr	r17
 624:	07 95       	ror	r16
 626:	f7 94       	ror	r15
 628:	e7 94       	ror	r14
 62a:	31 96       	adiw	r30, 0x01	; 1
 62c:	87 e0       	ldi	r24, 0x07	; 7
 62e:	16 95       	lsr	r17
 630:	07 95       	ror	r16
 632:	f7 94       	ror	r15
 634:	e7 94       	ror	r14
 636:	8a 95       	dec	r24
 638:	d1 f7       	brne	.-12     	; 0x62e <__pack_f+0x164>
 63a:	05 c0       	rjmp	.+10     	; 0x646 <__pack_f+0x17c>
 63c:	ee 24       	eor	r14, r14
 63e:	ff 24       	eor	r15, r15
 640:	87 01       	movw	r16, r14
 642:	ef ef       	ldi	r30, 0xFF	; 255
 644:	f0 e0       	ldi	r31, 0x00	; 0
 646:	6e 2f       	mov	r22, r30
 648:	67 95       	ror	r22
 64a:	66 27       	eor	r22, r22
 64c:	67 95       	ror	r22
 64e:	90 2f       	mov	r25, r16
 650:	9f 77       	andi	r25, 0x7F	; 127
 652:	d7 94       	ror	r13
 654:	dd 24       	eor	r13, r13
 656:	d7 94       	ror	r13
 658:	8e 2f       	mov	r24, r30
 65a:	86 95       	lsr	r24
 65c:	49 2f       	mov	r20, r25
 65e:	46 2b       	or	r20, r22
 660:	58 2f       	mov	r21, r24
 662:	5d 29       	or	r21, r13
 664:	b7 01       	movw	r22, r14
 666:	ca 01       	movw	r24, r20
 668:	1f 91       	pop	r17
 66a:	0f 91       	pop	r16
 66c:	ff 90       	pop	r15
 66e:	ef 90       	pop	r14
 670:	df 90       	pop	r13
 672:	08 95       	ret

00000674 <__unpack_f>:
 674:	fc 01       	movw	r30, r24
 676:	db 01       	movw	r26, r22
 678:	40 81       	ld	r20, Z
 67a:	51 81       	ldd	r21, Z+1	; 0x01
 67c:	22 81       	ldd	r18, Z+2	; 0x02
 67e:	62 2f       	mov	r22, r18
 680:	6f 77       	andi	r22, 0x7F	; 127
 682:	70 e0       	ldi	r23, 0x00	; 0
 684:	22 1f       	adc	r18, r18
 686:	22 27       	eor	r18, r18
 688:	22 1f       	adc	r18, r18
 68a:	93 81       	ldd	r25, Z+3	; 0x03
 68c:	89 2f       	mov	r24, r25
 68e:	88 0f       	add	r24, r24
 690:	82 2b       	or	r24, r18
 692:	28 2f       	mov	r18, r24
 694:	30 e0       	ldi	r19, 0x00	; 0
 696:	99 1f       	adc	r25, r25
 698:	99 27       	eor	r25, r25
 69a:	99 1f       	adc	r25, r25
 69c:	11 96       	adiw	r26, 0x01	; 1
 69e:	9c 93       	st	X, r25
 6a0:	11 97       	sbiw	r26, 0x01	; 1
 6a2:	21 15       	cp	r18, r1
 6a4:	31 05       	cpc	r19, r1
 6a6:	a9 f5       	brne	.+106    	; 0x712 <__unpack_f+0x9e>
 6a8:	41 15       	cp	r20, r1
 6aa:	51 05       	cpc	r21, r1
 6ac:	61 05       	cpc	r22, r1
 6ae:	71 05       	cpc	r23, r1
 6b0:	11 f4       	brne	.+4      	; 0x6b6 <__unpack_f+0x42>
 6b2:	82 e0       	ldi	r24, 0x02	; 2
 6b4:	37 c0       	rjmp	.+110    	; 0x724 <__unpack_f+0xb0>
 6b6:	82 e8       	ldi	r24, 0x82	; 130
 6b8:	9f ef       	ldi	r25, 0xFF	; 255
 6ba:	13 96       	adiw	r26, 0x03	; 3
 6bc:	9c 93       	st	X, r25
 6be:	8e 93       	st	-X, r24
 6c0:	12 97       	sbiw	r26, 0x02	; 2
 6c2:	9a 01       	movw	r18, r20
 6c4:	ab 01       	movw	r20, r22
 6c6:	67 e0       	ldi	r22, 0x07	; 7
 6c8:	22 0f       	add	r18, r18
 6ca:	33 1f       	adc	r19, r19
 6cc:	44 1f       	adc	r20, r20
 6ce:	55 1f       	adc	r21, r21
 6d0:	6a 95       	dec	r22
 6d2:	d1 f7       	brne	.-12     	; 0x6c8 <__unpack_f+0x54>
 6d4:	83 e0       	ldi	r24, 0x03	; 3
 6d6:	8c 93       	st	X, r24
 6d8:	0d c0       	rjmp	.+26     	; 0x6f4 <__unpack_f+0x80>
 6da:	22 0f       	add	r18, r18
 6dc:	33 1f       	adc	r19, r19
 6de:	44 1f       	adc	r20, r20
 6e0:	55 1f       	adc	r21, r21
 6e2:	12 96       	adiw	r26, 0x02	; 2
 6e4:	8d 91       	ld	r24, X+
 6e6:	9c 91       	ld	r25, X
 6e8:	13 97       	sbiw	r26, 0x03	; 3
 6ea:	01 97       	sbiw	r24, 0x01	; 1
 6ec:	13 96       	adiw	r26, 0x03	; 3
 6ee:	9c 93       	st	X, r25
 6f0:	8e 93       	st	-X, r24
 6f2:	12 97       	sbiw	r26, 0x02	; 2
 6f4:	20 30       	cpi	r18, 0x00	; 0
 6f6:	80 e0       	ldi	r24, 0x00	; 0
 6f8:	38 07       	cpc	r19, r24
 6fa:	80 e0       	ldi	r24, 0x00	; 0
 6fc:	48 07       	cpc	r20, r24
 6fe:	80 e4       	ldi	r24, 0x40	; 64
 700:	58 07       	cpc	r21, r24
 702:	58 f3       	brcs	.-42     	; 0x6da <__unpack_f+0x66>
 704:	14 96       	adiw	r26, 0x04	; 4
 706:	2d 93       	st	X+, r18
 708:	3d 93       	st	X+, r19
 70a:	4d 93       	st	X+, r20
 70c:	5c 93       	st	X, r21
 70e:	17 97       	sbiw	r26, 0x07	; 7
 710:	08 95       	ret
 712:	2f 3f       	cpi	r18, 0xFF	; 255
 714:	31 05       	cpc	r19, r1
 716:	79 f4       	brne	.+30     	; 0x736 <__unpack_f+0xc2>
 718:	41 15       	cp	r20, r1
 71a:	51 05       	cpc	r21, r1
 71c:	61 05       	cpc	r22, r1
 71e:	71 05       	cpc	r23, r1
 720:	19 f4       	brne	.+6      	; 0x728 <__unpack_f+0xb4>
 722:	84 e0       	ldi	r24, 0x04	; 4
 724:	8c 93       	st	X, r24
 726:	08 95       	ret
 728:	64 ff       	sbrs	r22, 4
 72a:	03 c0       	rjmp	.+6      	; 0x732 <__unpack_f+0xbe>
 72c:	81 e0       	ldi	r24, 0x01	; 1
 72e:	8c 93       	st	X, r24
 730:	12 c0       	rjmp	.+36     	; 0x756 <__unpack_f+0xe2>
 732:	1c 92       	st	X, r1
 734:	10 c0       	rjmp	.+32     	; 0x756 <__unpack_f+0xe2>
 736:	2f 57       	subi	r18, 0x7F	; 127
 738:	30 40       	sbci	r19, 0x00	; 0
 73a:	13 96       	adiw	r26, 0x03	; 3
 73c:	3c 93       	st	X, r19
 73e:	2e 93       	st	-X, r18
 740:	12 97       	sbiw	r26, 0x02	; 2
 742:	83 e0       	ldi	r24, 0x03	; 3
 744:	8c 93       	st	X, r24
 746:	87 e0       	ldi	r24, 0x07	; 7
 748:	44 0f       	add	r20, r20
 74a:	55 1f       	adc	r21, r21
 74c:	66 1f       	adc	r22, r22
 74e:	77 1f       	adc	r23, r23
 750:	8a 95       	dec	r24
 752:	d1 f7       	brne	.-12     	; 0x748 <__unpack_f+0xd4>
 754:	70 64       	ori	r23, 0x40	; 64
 756:	14 96       	adiw	r26, 0x04	; 4
 758:	4d 93       	st	X+, r20
 75a:	5d 93       	st	X+, r21
 75c:	6d 93       	st	X+, r22
 75e:	7c 93       	st	X, r23
 760:	17 97       	sbiw	r26, 0x07	; 7
 762:	08 95       	ret

00000764 <ds18b20_reset>:
 764:	a8 98       	cbi	0x15, 0	; 21
 766:	a0 9a       	sbi	0x14, 0	; 20
 768:	80 ec       	ldi	r24, 0xC0	; 192
 76a:	93 e0       	ldi	r25, 0x03	; 3
 76c:	01 97       	sbiw	r24, 0x01	; 1
 76e:	f1 f7       	brne	.-4      	; 0x76c <ds18b20_reset+0x8>
 770:	a0 98       	cbi	0x14, 0	; 20
 772:	80 ea       	ldi	r24, 0xA0	; 160
 774:	8a 95       	dec	r24
 776:	f1 f7       	brne	.-4      	; 0x774 <ds18b20_reset+0x10>
 778:	83 b3       	in	r24, 0x13	; 19
 77a:	e8 e4       	ldi	r30, 0x48	; 72
 77c:	f3 e0       	ldi	r31, 0x03	; 3
 77e:	31 97       	sbiw	r30, 0x01	; 1
 780:	f1 f7       	brne	.-4      	; 0x77e <ds18b20_reset+0x1a>
 782:	81 70       	andi	r24, 0x01	; 1
 784:	08 95       	ret

00000786 <ds18b20_writebit>:
 786:	a8 98       	cbi	0x15, 0	; 21
 788:	a0 9a       	sbi	0x14, 0	; 20
 78a:	92 e0       	ldi	r25, 0x02	; 2
 78c:	9a 95       	dec	r25
 78e:	f1 f7       	brne	.-4      	; 0x78c <ds18b20_writebit+0x6>
 790:	81 11       	cpse	r24, r1
 792:	a0 98       	cbi	0x14, 0	; 20
 794:	80 ea       	ldi	r24, 0xA0	; 160
 796:	8a 95       	dec	r24
 798:	f1 f7       	brne	.-4      	; 0x796 <ds18b20_writebit+0x10>
 79a:	a0 98       	cbi	0x14, 0	; 20
 79c:	08 95       	ret

0000079e <ds18b20_readbit>:
 79e:	a8 98       	cbi	0x15, 0	; 21
 7a0:	a0 9a       	sbi	0x14, 0	; 20
 7a2:	82 e0       	ldi	r24, 0x02	; 2
 7a4:	8a 95       	dec	r24
 7a6:	f1 f7       	brne	.-4      	; 0x7a4 <ds18b20_readbit+0x6>
 7a8:	a0 98       	cbi	0x14, 0	; 20
 7aa:	85 e2       	ldi	r24, 0x25	; 37
 7ac:	8a 95       	dec	r24
 7ae:	f1 f7       	brne	.-4      	; 0x7ac <ds18b20_readbit+0xe>
 7b0:	83 b3       	in	r24, 0x13	; 19
 7b2:	98 e7       	ldi	r25, 0x78	; 120
 7b4:	9a 95       	dec	r25
 7b6:	f1 f7       	brne	.-4      	; 0x7b4 <ds18b20_readbit+0x16>
 7b8:	81 70       	andi	r24, 0x01	; 1
 7ba:	08 95       	ret

000007bc <ds18b20_writebyte>:
 7bc:	0f 93       	push	r16
 7be:	1f 93       	push	r17
 7c0:	08 2f       	mov	r16, r24
 7c2:	18 e0       	ldi	r17, 0x08	; 8
 7c4:	05 c0       	rjmp	.+10     	; 0x7d0 <ds18b20_writebyte+0x14>
 7c6:	80 2f       	mov	r24, r16
 7c8:	81 70       	andi	r24, 0x01	; 1
 7ca:	0e 94 c3 03 	call	0x786	; 0x786 <ds18b20_writebit>
 7ce:	06 95       	lsr	r16
 7d0:	11 50       	subi	r17, 0x01	; 1
 7d2:	c8 f7       	brcc	.-14     	; 0x7c6 <ds18b20_writebyte+0xa>
 7d4:	1f 91       	pop	r17
 7d6:	0f 91       	pop	r16
 7d8:	08 95       	ret

000007da <ds18b20_readbyte>:
 7da:	0f 93       	push	r16
 7dc:	1f 93       	push	r17
 7de:	08 e0       	ldi	r16, 0x08	; 8
 7e0:	10 e0       	ldi	r17, 0x00	; 0
 7e2:	09 c0       	rjmp	.+18     	; 0x7f6 <ds18b20_readbyte+0x1c>
 7e4:	0e 94 cf 03 	call	0x79e	; 0x79e <ds18b20_readbit>
 7e8:	91 2f       	mov	r25, r17
 7ea:	96 95       	lsr	r25
 7ec:	18 2f       	mov	r17, r24
 7ee:	17 95       	ror	r17
 7f0:	11 27       	eor	r17, r17
 7f2:	17 95       	ror	r17
 7f4:	19 2b       	or	r17, r25
 7f6:	01 50       	subi	r16, 0x01	; 1
 7f8:	a8 f7       	brcc	.-22     	; 0x7e4 <ds18b20_readbyte+0xa>
 7fa:	81 2f       	mov	r24, r17
 7fc:	1f 91       	pop	r17
 7fe:	0f 91       	pop	r16
 800:	08 95       	ret

00000802 <ds18b20_gettemp>:
 802:	1f 93       	push	r17
 804:	f8 94       	cli
 806:	0e 94 b2 03 	call	0x764	; 0x764 <ds18b20_reset>
 80a:	8c ec       	ldi	r24, 0xCC	; 204
 80c:	0e 94 de 03 	call	0x7bc	; 0x7bc <ds18b20_writebyte>
 810:	84 e4       	ldi	r24, 0x44	; 68
 812:	0e 94 de 03 	call	0x7bc	; 0x7bc <ds18b20_writebyte>
 816:	0e 94 cf 03 	call	0x79e	; 0x79e <ds18b20_readbit>
 81a:	88 23       	and	r24, r24
 81c:	e1 f3       	breq	.-8      	; 0x816 <ds18b20_gettemp+0x14>
 81e:	0e 94 b2 03 	call	0x764	; 0x764 <ds18b20_reset>
 822:	8c ec       	ldi	r24, 0xCC	; 204
 824:	0e 94 de 03 	call	0x7bc	; 0x7bc <ds18b20_writebyte>
 828:	8e eb       	ldi	r24, 0xBE	; 190
 82a:	0e 94 de 03 	call	0x7bc	; 0x7bc <ds18b20_writebyte>
 82e:	0e 94 ed 03 	call	0x7da	; 0x7da <ds18b20_readbyte>
 832:	18 2f       	mov	r17, r24
 834:	0e 94 ed 03 	call	0x7da	; 0x7da <ds18b20_readbyte>
 838:	78 94       	sei
 83a:	78 2f       	mov	r23, r24
 83c:	60 e0       	ldi	r22, 0x00	; 0
 83e:	61 0f       	add	r22, r17
 840:	71 1d       	adc	r23, r1
 842:	88 27       	eor	r24, r24
 844:	77 fd       	sbrc	r23, 7
 846:	80 95       	com	r24
 848:	98 2f       	mov	r25, r24
 84a:	0e 94 b8 01 	call	0x370	; 0x370 <__floatsisf>
 84e:	20 e0       	ldi	r18, 0x00	; 0
 850:	30 e0       	ldi	r19, 0x00	; 0
 852:	40 e8       	ldi	r20, 0x80	; 128
 854:	5d e3       	ldi	r21, 0x3D	; 61
 856:	0e 94 be 00 	call	0x17c	; 0x17c <__mulsf3>
 85a:	1f 91       	pop	r17
 85c:	08 95       	ret

0000085e <lcd_command>:
 85e:	98 b3       	in	r25, 0x18	; 24
 860:	28 2f       	mov	r18, r24
 862:	20 7f       	andi	r18, 0xF0	; 240
 864:	9f 70       	andi	r25, 0x0F	; 15
 866:	29 2b       	or	r18, r25
 868:	28 bb       	out	0x18, r18	; 24
 86a:	c0 98       	cbi	0x18, 0	; 24
 86c:	c1 98       	cbi	0x18, 1	; 24
 86e:	c2 9a       	sbi	0x18, 2	; 24
 870:	25 e8       	ldi	r18, 0x85	; 133
 872:	92 2f       	mov	r25, r18
 874:	9a 95       	dec	r25
 876:	f1 f7       	brne	.-4      	; 0x874 <__stack+0x15>
 878:	c2 98       	cbi	0x18, 2	; 24
 87a:	92 2f       	mov	r25, r18
 87c:	9a 95       	dec	r25
 87e:	f1 f7       	brne	.-4      	; 0x87c <__stack+0x1d>
 880:	98 b3       	in	r25, 0x18	; 24
 882:	82 95       	swap	r24
 884:	80 7f       	andi	r24, 0xF0	; 240
 886:	9f 70       	andi	r25, 0x0F	; 15
 888:	98 2b       	or	r25, r24
 88a:	98 bb       	out	0x18, r25	; 24
 88c:	c2 9a       	sbi	0x18, 2	; 24
 88e:	2a 95       	dec	r18
 890:	f1 f7       	brne	.-4      	; 0x88e <__stack+0x2f>
 892:	c2 98       	cbi	0x18, 2	; 24
 894:	08 95       	ret

00000896 <lcd_data>:
 896:	98 b3       	in	r25, 0x18	; 24
 898:	28 2f       	mov	r18, r24
 89a:	20 7f       	andi	r18, 0xF0	; 240
 89c:	9f 70       	andi	r25, 0x0F	; 15
 89e:	29 2b       	or	r18, r25
 8a0:	28 bb       	out	0x18, r18	; 24
 8a2:	c0 9a       	sbi	0x18, 0	; 24
 8a4:	c1 98       	cbi	0x18, 1	; 24
 8a6:	c2 9a       	sbi	0x18, 2	; 24
 8a8:	95 e8       	ldi	r25, 0x85	; 133
 8aa:	29 2f       	mov	r18, r25
 8ac:	2a 95       	dec	r18
 8ae:	f1 f7       	brne	.-4      	; 0x8ac <lcd_data+0x16>
 8b0:	c2 98       	cbi	0x18, 2	; 24
 8b2:	9a 95       	dec	r25
 8b4:	f1 f7       	brne	.-4      	; 0x8b2 <lcd_data+0x1c>
 8b6:	98 b3       	in	r25, 0x18	; 24
 8b8:	82 95       	swap	r24
 8ba:	80 7f       	andi	r24, 0xF0	; 240
 8bc:	9f 70       	andi	r25, 0x0F	; 15
 8be:	98 2b       	or	r25, r24
 8c0:	98 bb       	out	0x18, r25	; 24
 8c2:	c2 9a       	sbi	0x18, 2	; 24
 8c4:	88 ec       	ldi	r24, 0xC8	; 200
 8c6:	90 e0       	ldi	r25, 0x00	; 0
 8c8:	01 97       	sbiw	r24, 0x01	; 1
 8ca:	f1 f7       	brne	.-4      	; 0x8c8 <lcd_data+0x32>
 8cc:	c2 98       	cbi	0x18, 2	; 24
 8ce:	08 95       	ret

000008d0 <lcd_init>:
 8d0:	ef 92       	push	r14
 8d2:	ff 92       	push	r15
 8d4:	1f 93       	push	r17
 8d6:	80 e1       	ldi	r24, 0x10	; 16
 8d8:	97 e2       	ldi	r25, 0x27	; 39
 8da:	01 97       	sbiw	r24, 0x01	; 1
 8dc:	f1 f7       	brne	.-4      	; 0x8da <lcd_init+0xa>
 8de:	87 b3       	in	r24, 0x17	; 23
 8e0:	8f ef       	ldi	r24, 0xFF	; 255
 8e2:	87 bb       	out	0x17, r24	; 23
 8e4:	c2 98       	cbi	0x18, 2	; 24
 8e6:	80 ea       	ldi	r24, 0xA0	; 160
 8e8:	e8 2e       	mov	r14, r24
 8ea:	8f e0       	ldi	r24, 0x0F	; 15
 8ec:	f8 2e       	mov	r15, r24
 8ee:	c7 01       	movw	r24, r14
 8f0:	01 97       	sbiw	r24, 0x01	; 1
 8f2:	f1 f7       	brne	.-4      	; 0x8f0 <lcd_init+0x20>
 8f4:	83 e3       	ldi	r24, 0x33	; 51
 8f6:	0e 94 2f 04 	call	0x85e	; 0x85e <lcd_command>
 8fa:	15 e8       	ldi	r17, 0x85	; 133
 8fc:	81 2f       	mov	r24, r17
 8fe:	8a 95       	dec	r24
 900:	f1 f7       	brne	.-4      	; 0x8fe <lcd_init+0x2e>
 902:	82 e3       	ldi	r24, 0x32	; 50
 904:	0e 94 2f 04 	call	0x85e	; 0x85e <lcd_command>
 908:	81 2f       	mov	r24, r17
 90a:	8a 95       	dec	r24
 90c:	f1 f7       	brne	.-4      	; 0x90a <lcd_init+0x3a>
 90e:	88 e2       	ldi	r24, 0x28	; 40
 910:	0e 94 2f 04 	call	0x85e	; 0x85e <lcd_command>
 914:	81 2f       	mov	r24, r17
 916:	8a 95       	dec	r24
 918:	f1 f7       	brne	.-4      	; 0x916 <lcd_init+0x46>
 91a:	8e e0       	ldi	r24, 0x0E	; 14
 91c:	0e 94 2f 04 	call	0x85e	; 0x85e <lcd_command>
 920:	1a 95       	dec	r17
 922:	f1 f7       	brne	.-4      	; 0x920 <lcd_init+0x50>
 924:	81 e0       	ldi	r24, 0x01	; 1
 926:	0e 94 2f 04 	call	0x85e	; 0x85e <lcd_command>
 92a:	c7 01       	movw	r24, r14
 92c:	01 97       	sbiw	r24, 0x01	; 1
 92e:	f1 f7       	brne	.-4      	; 0x92c <lcd_init+0x5c>
 930:	86 e0       	ldi	r24, 0x06	; 6
 932:	0e 94 2f 04 	call	0x85e	; 0x85e <lcd_command>
 936:	1f 91       	pop	r17
 938:	ff 90       	pop	r15
 93a:	ef 90       	pop	r14
 93c:	08 95       	ret

0000093e <lcd_goto_xy>:
 93e:	df 93       	push	r29
 940:	cf 93       	push	r28
 942:	00 d0       	rcall	.+0      	; 0x944 <lcd_goto_xy+0x6>
 944:	00 d0       	rcall	.+0      	; 0x946 <lcd_goto_xy+0x8>
 946:	cd b7       	in	r28, 0x3d	; 61
 948:	de b7       	in	r29, 0x3e	; 62
 94a:	90 e8       	ldi	r25, 0x80	; 128
 94c:	99 83       	std	Y+1, r25	; 0x01
 94e:	90 ec       	ldi	r25, 0xC0	; 192
 950:	9a 83       	std	Y+2, r25	; 0x02
 952:	90 e9       	ldi	r25, 0x90	; 144
 954:	9b 83       	std	Y+3, r25	; 0x03
 956:	90 ed       	ldi	r25, 0xD0	; 208
 958:	9c 83       	std	Y+4, r25	; 0x04
 95a:	61 50       	subi	r22, 0x01	; 1
 95c:	fe 01       	movw	r30, r28
 95e:	e8 0f       	add	r30, r24
 960:	f1 1d       	adc	r31, r1
 962:	80 81       	ld	r24, Z
 964:	86 0f       	add	r24, r22
 966:	0e 94 2f 04 	call	0x85e	; 0x85e <lcd_command>
 96a:	88 ec       	ldi	r24, 0xC8	; 200
 96c:	90 e0       	ldi	r25, 0x00	; 0
 96e:	01 97       	sbiw	r24, 0x01	; 1
 970:	f1 f7       	brne	.-4      	; 0x96e <lcd_goto_xy+0x30>
 972:	0f 90       	pop	r0
 974:	0f 90       	pop	r0
 976:	0f 90       	pop	r0
 978:	0f 90       	pop	r0
 97a:	cf 91       	pop	r28
 97c:	df 91       	pop	r29
 97e:	08 95       	ret

00000980 <lcd_print>:
 980:	cf 93       	push	r28
 982:	df 93       	push	r29
 984:	ec 01       	movw	r28, r24
 986:	03 c0       	rjmp	.+6      	; 0x98e <lcd_print+0xe>
 988:	21 96       	adiw	r28, 0x01	; 1
 98a:	0e 94 4b 04 	call	0x896	; 0x896 <lcd_data>
 98e:	88 81       	ld	r24, Y
 990:	88 23       	and	r24, r24
 992:	d1 f7       	brne	.-12     	; 0x988 <lcd_print+0x8>
 994:	df 91       	pop	r29
 996:	cf 91       	pop	r28
 998:	08 95       	ret

0000099a <lcd_CLEAR>:
 99a:	81 e0       	ldi	r24, 0x01	; 1
 99c:	0e 94 2f 04 	call	0x85e	; 0x85e <lcd_command>
 9a0:	80 ea       	ldi	r24, 0xA0	; 160
 9a2:	9f e0       	ldi	r25, 0x0F	; 15
 9a4:	01 97       	sbiw	r24, 0x01	; 1
 9a6:	f1 f7       	brne	.-4      	; 0x9a4 <lcd_CLEAR+0xa>
 9a8:	08 95       	ret

000009aa <lcd_curcor_off>:
 9aa:	8c e0       	ldi	r24, 0x0C	; 12
 9ac:	0e 94 2f 04 	call	0x85e	; 0x85e <lcd_command>
 9b0:	88 ec       	ldi	r24, 0xC8	; 200
 9b2:	90 e0       	ldi	r25, 0x00	; 0
 9b4:	01 97       	sbiw	r24, 0x01	; 1
 9b6:	f1 f7       	brne	.-4      	; 0x9b4 <lcd_curcor_off+0xa>
 9b8:	08 95       	ret

000009ba <main>:
 9ba:	cf 92       	push	r12
 9bc:	df 92       	push	r13
 9be:	ef 92       	push	r14
 9c0:	ff 92       	push	r15
 9c2:	0f 93       	push	r16
 9c4:	1f 93       	push	r17
 9c6:	df 93       	push	r29
 9c8:	cf 93       	push	r28
 9ca:	cd b7       	in	r28, 0x3d	; 61
 9cc:	de b7       	in	r29, 0x3e	; 62
 9ce:	2a 97       	sbiw	r28, 0x0a	; 10
 9d0:	0f b6       	in	r0, 0x3f	; 63
 9d2:	f8 94       	cli
 9d4:	de bf       	out	0x3e, r29	; 62
 9d6:	0f be       	out	0x3f, r0	; 63
 9d8:	cd bf       	out	0x3d, r28	; 61
 9da:	0e 94 68 04 	call	0x8d0	; 0x8d0 <lcd_init>
 9de:	7e 01       	movw	r14, r28
 9e0:	08 94       	sec
 9e2:	e1 1c       	adc	r14, r1
 9e4:	f1 1c       	adc	r15, r1
 9e6:	88 ec       	ldi	r24, 0xC8	; 200
 9e8:	c8 2e       	mov	r12, r24
 9ea:	d1 2c       	mov	r13, r1
 9ec:	81 e0       	ldi	r24, 0x01	; 1
 9ee:	61 e0       	ldi	r22, 0x01	; 1
 9f0:	0e 94 9f 04 	call	0x93e	; 0x93e <lcd_goto_xy>
 9f4:	80 e6       	ldi	r24, 0x60	; 96
 9f6:	90 e0       	ldi	r25, 0x00	; 0
 9f8:	0e 94 c0 04 	call	0x980	; 0x980 <lcd_print>
 9fc:	82 e0       	ldi	r24, 0x02	; 2
 9fe:	64 e0       	ldi	r22, 0x04	; 4
 a00:	0e 94 9f 04 	call	0x93e	; 0x93e <lcd_goto_xy>
 a04:	0e 94 01 04 	call	0x802	; 0x802 <ds18b20_gettemp>
 a08:	45 e0       	ldi	r20, 0x05	; 5
 a0a:	23 e0       	ldi	r18, 0x03	; 3
 a0c:	87 01       	movw	r16, r14
 a0e:	0e 94 4b 05 	call	0xa96	; 0xa96 <dtostrf>
 a12:	c7 01       	movw	r24, r14
 a14:	0e 94 c0 04 	call	0x980	; 0x980 <lcd_print>
 a18:	8c ed       	ldi	r24, 0xDC	; 220
 a1a:	95 e0       	ldi	r25, 0x05	; 5
 a1c:	f6 01       	movw	r30, r12
 a1e:	31 97       	sbiw	r30, 0x01	; 1
 a20:	f1 f7       	brne	.-4      	; 0xa1e <main+0x64>
 a22:	01 97       	sbiw	r24, 0x01	; 1
 a24:	d9 f7       	brne	.-10     	; 0xa1c <main+0x62>
 a26:	e2 cf       	rjmp	.-60     	; 0x9ec <main+0x32>

00000a28 <__prologue_saves__>:
 a28:	2f 92       	push	r2
 a2a:	3f 92       	push	r3
 a2c:	4f 92       	push	r4
 a2e:	5f 92       	push	r5
 a30:	6f 92       	push	r6
 a32:	7f 92       	push	r7
 a34:	8f 92       	push	r8
 a36:	9f 92       	push	r9
 a38:	af 92       	push	r10
 a3a:	bf 92       	push	r11
 a3c:	cf 92       	push	r12
 a3e:	df 92       	push	r13
 a40:	ef 92       	push	r14
 a42:	ff 92       	push	r15
 a44:	0f 93       	push	r16
 a46:	1f 93       	push	r17
 a48:	cf 93       	push	r28
 a4a:	df 93       	push	r29
 a4c:	cd b7       	in	r28, 0x3d	; 61
 a4e:	de b7       	in	r29, 0x3e	; 62
 a50:	ca 1b       	sub	r28, r26
 a52:	db 0b       	sbc	r29, r27
 a54:	0f b6       	in	r0, 0x3f	; 63
 a56:	f8 94       	cli
 a58:	de bf       	out	0x3e, r29	; 62
 a5a:	0f be       	out	0x3f, r0	; 63
 a5c:	cd bf       	out	0x3d, r28	; 61
 a5e:	09 94       	ijmp

00000a60 <__epilogue_restores__>:
 a60:	2a 88       	ldd	r2, Y+18	; 0x12
 a62:	39 88       	ldd	r3, Y+17	; 0x11
 a64:	48 88       	ldd	r4, Y+16	; 0x10
 a66:	5f 84       	ldd	r5, Y+15	; 0x0f
 a68:	6e 84       	ldd	r6, Y+14	; 0x0e
 a6a:	7d 84       	ldd	r7, Y+13	; 0x0d
 a6c:	8c 84       	ldd	r8, Y+12	; 0x0c
 a6e:	9b 84       	ldd	r9, Y+11	; 0x0b
 a70:	aa 84       	ldd	r10, Y+10	; 0x0a
 a72:	b9 84       	ldd	r11, Y+9	; 0x09
 a74:	c8 84       	ldd	r12, Y+8	; 0x08
 a76:	df 80       	ldd	r13, Y+7	; 0x07
 a78:	ee 80       	ldd	r14, Y+6	; 0x06
 a7a:	fd 80       	ldd	r15, Y+5	; 0x05
 a7c:	0c 81       	ldd	r16, Y+4	; 0x04
 a7e:	1b 81       	ldd	r17, Y+3	; 0x03
 a80:	aa 81       	ldd	r26, Y+2	; 0x02
 a82:	b9 81       	ldd	r27, Y+1	; 0x01
 a84:	ce 0f       	add	r28, r30
 a86:	d1 1d       	adc	r29, r1
 a88:	0f b6       	in	r0, 0x3f	; 63
 a8a:	f8 94       	cli
 a8c:	de bf       	out	0x3e, r29	; 62
 a8e:	0f be       	out	0x3f, r0	; 63
 a90:	cd bf       	out	0x3d, r28	; 61
 a92:	ed 01       	movw	r28, r26
 a94:	08 95       	ret

00000a96 <dtostrf>:
 a96:	ef 92       	push	r14
 a98:	ff 92       	push	r15
 a9a:	0f 93       	push	r16
 a9c:	1f 93       	push	r17
 a9e:	f2 2f       	mov	r31, r18
 aa0:	f0 2e       	mov	r15, r16
 aa2:	47 fd       	sbrc	r20, 7
 aa4:	02 c0       	rjmp	.+4      	; 0xaaa <dtostrf+0x14>
 aa6:	e4 e0       	ldi	r30, 0x04	; 4
 aa8:	01 c0       	rjmp	.+2      	; 0xaac <dtostrf+0x16>
 aaa:	e4 e1       	ldi	r30, 0x14	; 20
 aac:	24 2f       	mov	r18, r20
 aae:	33 27       	eor	r19, r19
 ab0:	27 fd       	sbrc	r18, 7
 ab2:	30 95       	com	r19
 ab4:	37 ff       	sbrs	r19, 7
 ab6:	03 c0       	rjmp	.+6      	; 0xabe <dtostrf+0x28>
 ab8:	30 95       	com	r19
 aba:	21 95       	neg	r18
 abc:	3f 4f       	sbci	r19, 0xFF	; 255
 abe:	4f 2d       	mov	r20, r15
 ac0:	51 2f       	mov	r21, r17
 ac2:	0f 2f       	mov	r16, r31
 ac4:	ee 2e       	mov	r14, r30
 ac6:	0e 94 6c 05 	call	0xad8	; 0xad8 <dtoa_prf>
 aca:	8f 2d       	mov	r24, r15
 acc:	91 2f       	mov	r25, r17
 ace:	1f 91       	pop	r17
 ad0:	0f 91       	pop	r16
 ad2:	ff 90       	pop	r15
 ad4:	ef 90       	pop	r14
 ad6:	08 95       	ret

00000ad8 <dtoa_prf>:
 ad8:	a9 e0       	ldi	r26, 0x09	; 9
 ada:	b0 e0       	ldi	r27, 0x00	; 0
 adc:	e2 e7       	ldi	r30, 0x72	; 114
 ade:	f5 e0       	ldi	r31, 0x05	; 5
 ae0:	0c 94 18 05 	jmp	0xa30	; 0xa30 <__prologue_saves__+0x8>
 ae4:	6a 01       	movw	r12, r20
 ae6:	12 2f       	mov	r17, r18
 ae8:	a0 2e       	mov	r10, r16
 aea:	be 2c       	mov	r11, r14
 aec:	2b e3       	ldi	r18, 0x3B	; 59
 aee:	20 17       	cp	r18, r16
 af0:	18 f4       	brcc	.+6      	; 0xaf8 <dtoa_prf+0x20>
 af2:	2c e3       	ldi	r18, 0x3C	; 60
 af4:	92 2e       	mov	r9, r18
 af6:	02 c0       	rjmp	.+4      	; 0xafc <dtoa_prf+0x24>
 af8:	90 2e       	mov	r9, r16
 afa:	93 94       	inc	r9
 afc:	ae 01       	movw	r20, r28
 afe:	4f 5f       	subi	r20, 0xFF	; 255
 b00:	5f 4f       	sbci	r21, 0xFF	; 255
 b02:	27 e0       	ldi	r18, 0x07	; 7
 b04:	09 2d       	mov	r16, r9
 b06:	0e 94 ce 06 	call	0xd9c	; 0xd9c <__ftoa_engine>
 b0a:	bc 01       	movw	r22, r24
 b0c:	89 81       	ldd	r24, Y+1	; 0x01
 b0e:	e8 2e       	mov	r14, r24
 b10:	ff 24       	eor	r15, r15
 b12:	c7 01       	movw	r24, r14
 b14:	89 70       	andi	r24, 0x09	; 9
 b16:	90 70       	andi	r25, 0x00	; 0
 b18:	01 97       	sbiw	r24, 0x01	; 1
 b1a:	11 f4       	brne	.+4      	; 0xb20 <dtoa_prf+0x48>
 b1c:	ad e2       	ldi	r26, 0x2D	; 45
 b1e:	09 c0       	rjmp	.+18     	; 0xb32 <dtoa_prf+0x5a>
 b20:	b1 fe       	sbrs	r11, 1
 b22:	02 c0       	rjmp	.+4      	; 0xb28 <dtoa_prf+0x50>
 b24:	ab e2       	ldi	r26, 0x2B	; 43
 b26:	05 c0       	rjmp	.+10     	; 0xb32 <dtoa_prf+0x5a>
 b28:	b0 fc       	sbrc	r11, 0
 b2a:	02 c0       	rjmp	.+4      	; 0xb30 <dtoa_prf+0x58>
 b2c:	a0 e0       	ldi	r26, 0x00	; 0
 b2e:	01 c0       	rjmp	.+2      	; 0xb32 <dtoa_prf+0x5a>
 b30:	a0 e2       	ldi	r26, 0x20	; 32
 b32:	e3 fe       	sbrs	r14, 3
 b34:	3b c0       	rjmp	.+118    	; 0xbac <dtoa_prf+0xd4>
 b36:	aa 23       	and	r26, r26
 b38:	11 f4       	brne	.+4      	; 0xb3e <dtoa_prf+0x66>
 b3a:	23 e0       	ldi	r18, 0x03	; 3
 b3c:	01 c0       	rjmp	.+2      	; 0xb40 <dtoa_prf+0x68>
 b3e:	24 e0       	ldi	r18, 0x04	; 4
 b40:	21 17       	cp	r18, r17
 b42:	10 f0       	brcs	.+4      	; 0xb48 <dtoa_prf+0x70>
 b44:	20 e0       	ldi	r18, 0x00	; 0
 b46:	02 c0       	rjmp	.+4      	; 0xb4c <dtoa_prf+0x74>
 b48:	12 1b       	sub	r17, r18
 b4a:	21 2f       	mov	r18, r17
 b4c:	eb 2c       	mov	r14, r11
 b4e:	b4 fe       	sbrs	r11, 4
 b50:	02 c0       	rjmp	.+4      	; 0xb56 <dtoa_prf+0x7e>
 b52:	32 2f       	mov	r19, r18
 b54:	0a c0       	rjmp	.+20     	; 0xb6a <dtoa_prf+0x92>
 b56:	f6 01       	movw	r30, r12
 b58:	32 2f       	mov	r19, r18
 b5a:	80 e2       	ldi	r24, 0x20	; 32
 b5c:	02 c0       	rjmp	.+4      	; 0xb62 <dtoa_prf+0x8a>
 b5e:	81 93       	st	Z+, r24
 b60:	31 50       	subi	r19, 0x01	; 1
 b62:	33 23       	and	r19, r19
 b64:	e1 f7       	brne	.-8      	; 0xb5e <dtoa_prf+0x86>
 b66:	c2 0e       	add	r12, r18
 b68:	d1 1c       	adc	r13, r1
 b6a:	aa 23       	and	r26, r26
 b6c:	19 f0       	breq	.+6      	; 0xb74 <dtoa_prf+0x9c>
 b6e:	f6 01       	movw	r30, r12
 b70:	a1 93       	st	Z+, r26
 b72:	6f 01       	movw	r12, r30
 b74:	f6 01       	movw	r30, r12
 b76:	31 96       	adiw	r30, 0x01	; 1
 b78:	e2 fe       	sbrs	r14, 2
 b7a:	05 c0       	rjmp	.+10     	; 0xb86 <dtoa_prf+0xae>
 b7c:	9e e4       	ldi	r25, 0x4E	; 78
 b7e:	d6 01       	movw	r26, r12
 b80:	9c 93       	st	X, r25
 b82:	81 e4       	ldi	r24, 0x41	; 65
 b84:	04 c0       	rjmp	.+8      	; 0xb8e <dtoa_prf+0xb6>
 b86:	9e e6       	ldi	r25, 0x6E	; 110
 b88:	d6 01       	movw	r26, r12
 b8a:	9c 93       	st	X, r25
 b8c:	81 e6       	ldi	r24, 0x61	; 97
 b8e:	11 96       	adiw	r26, 0x01	; 1
 b90:	8c 93       	st	X, r24
 b92:	91 83       	std	Z+1, r25	; 0x01
 b94:	32 96       	adiw	r30, 0x02	; 2
 b96:	df 01       	movw	r26, r30
 b98:	83 2f       	mov	r24, r19
 b9a:	90 e2       	ldi	r25, 0x20	; 32
 b9c:	02 c0       	rjmp	.+4      	; 0xba2 <dtoa_prf+0xca>
 b9e:	9d 93       	st	X+, r25
 ba0:	81 50       	subi	r24, 0x01	; 1
 ba2:	88 23       	and	r24, r24
 ba4:	e1 f7       	brne	.-8      	; 0xb9e <dtoa_prf+0xc6>
 ba6:	e3 0f       	add	r30, r19
 ba8:	f1 1d       	adc	r31, r1
 baa:	40 c0       	rjmp	.+128    	; 0xc2c <dtoa_prf+0x154>
 bac:	e2 fe       	sbrs	r14, 2
 bae:	42 c0       	rjmp	.+132    	; 0xc34 <dtoa_prf+0x15c>
 bb0:	aa 23       	and	r26, r26
 bb2:	11 f4       	brne	.+4      	; 0xbb8 <dtoa_prf+0xe0>
 bb4:	23 e0       	ldi	r18, 0x03	; 3
 bb6:	01 c0       	rjmp	.+2      	; 0xbba <dtoa_prf+0xe2>
 bb8:	24 e0       	ldi	r18, 0x04	; 4
 bba:	21 17       	cp	r18, r17
 bbc:	10 f0       	brcs	.+4      	; 0xbc2 <dtoa_prf+0xea>
 bbe:	20 e0       	ldi	r18, 0x00	; 0
 bc0:	02 c0       	rjmp	.+4      	; 0xbc6 <dtoa_prf+0xee>
 bc2:	12 1b       	sub	r17, r18
 bc4:	21 2f       	mov	r18, r17
 bc6:	eb 2c       	mov	r14, r11
 bc8:	b4 fe       	sbrs	r11, 4
 bca:	02 c0       	rjmp	.+4      	; 0xbd0 <dtoa_prf+0xf8>
 bcc:	92 2f       	mov	r25, r18
 bce:	0a c0       	rjmp	.+20     	; 0xbe4 <dtoa_prf+0x10c>
 bd0:	f6 01       	movw	r30, r12
 bd2:	92 2f       	mov	r25, r18
 bd4:	80 e2       	ldi	r24, 0x20	; 32
 bd6:	02 c0       	rjmp	.+4      	; 0xbdc <dtoa_prf+0x104>
 bd8:	81 93       	st	Z+, r24
 bda:	91 50       	subi	r25, 0x01	; 1
 bdc:	99 23       	and	r25, r25
 bde:	e1 f7       	brne	.-8      	; 0xbd8 <dtoa_prf+0x100>
 be0:	c2 0e       	add	r12, r18
 be2:	d1 1c       	adc	r13, r1
 be4:	aa 23       	and	r26, r26
 be6:	19 f0       	breq	.+6      	; 0xbee <dtoa_prf+0x116>
 be8:	f6 01       	movw	r30, r12
 bea:	a1 93       	st	Z+, r26
 bec:	6f 01       	movw	r12, r30
 bee:	f6 01       	movw	r30, r12
 bf0:	31 96       	adiw	r30, 0x01	; 1
 bf2:	e2 fe       	sbrs	r14, 2
 bf4:	08 c0       	rjmp	.+16     	; 0xc06 <dtoa_prf+0x12e>
 bf6:	89 e4       	ldi	r24, 0x49	; 73
 bf8:	d6 01       	movw	r26, r12
 bfa:	8c 93       	st	X, r24
 bfc:	8e e4       	ldi	r24, 0x4E	; 78
 bfe:	11 96       	adiw	r26, 0x01	; 1
 c00:	8c 93       	st	X, r24
 c02:	86 e4       	ldi	r24, 0x46	; 70
 c04:	07 c0       	rjmp	.+14     	; 0xc14 <dtoa_prf+0x13c>
 c06:	89 e6       	ldi	r24, 0x69	; 105
 c08:	d6 01       	movw	r26, r12
 c0a:	8c 93       	st	X, r24
 c0c:	8e e6       	ldi	r24, 0x6E	; 110
 c0e:	11 96       	adiw	r26, 0x01	; 1
 c10:	8c 93       	st	X, r24
 c12:	86 e6       	ldi	r24, 0x66	; 102
 c14:	81 83       	std	Z+1, r24	; 0x01
 c16:	32 96       	adiw	r30, 0x02	; 2
 c18:	df 01       	movw	r26, r30
 c1a:	89 2f       	mov	r24, r25
 c1c:	20 e2       	ldi	r18, 0x20	; 32
 c1e:	02 c0       	rjmp	.+4      	; 0xc24 <dtoa_prf+0x14c>
 c20:	2d 93       	st	X+, r18
 c22:	81 50       	subi	r24, 0x01	; 1
 c24:	88 23       	and	r24, r24
 c26:	e1 f7       	brne	.-8      	; 0xc20 <dtoa_prf+0x148>
 c28:	e9 0f       	add	r30, r25
 c2a:	f1 1d       	adc	r31, r1
 c2c:	10 82       	st	Z, r1
 c2e:	2e ef       	ldi	r18, 0xFE	; 254
 c30:	3f ef       	ldi	r19, 0xFF	; 255
 c32:	af c0       	rjmp	.+350    	; 0xd92 <dtoa_prf+0x2ba>
 c34:	16 16       	cp	r1, r22
 c36:	17 06       	cpc	r1, r23
 c38:	1c f0       	brlt	.+6      	; 0xc40 <dtoa_prf+0x168>
 c3a:	41 e0       	ldi	r20, 0x01	; 1
 c3c:	50 e0       	ldi	r21, 0x00	; 0
 c3e:	03 c0       	rjmp	.+6      	; 0xc46 <dtoa_prf+0x16e>
 c40:	ab 01       	movw	r20, r22
 c42:	4f 5f       	subi	r20, 0xFF	; 255
 c44:	5f 4f       	sbci	r21, 0xFF	; 255
 c46:	aa 20       	and	r10, r10
 c48:	19 f4       	brne	.+6      	; 0xc50 <dtoa_prf+0x178>
 c4a:	80 e0       	ldi	r24, 0x00	; 0
 c4c:	90 e0       	ldi	r25, 0x00	; 0
 c4e:	03 c0       	rjmp	.+6      	; 0xc56 <dtoa_prf+0x17e>
 c50:	8a 2d       	mov	r24, r10
 c52:	90 e0       	ldi	r25, 0x00	; 0
 c54:	01 96       	adiw	r24, 0x01	; 1
 c56:	20 e0       	ldi	r18, 0x00	; 0
 c58:	30 e0       	ldi	r19, 0x00	; 0
 c5a:	aa 23       	and	r26, r26
 c5c:	11 f0       	breq	.+4      	; 0xc62 <dtoa_prf+0x18a>
 c5e:	21 e0       	ldi	r18, 0x01	; 1
 c60:	30 e0       	ldi	r19, 0x00	; 0
 c62:	24 0f       	add	r18, r20
 c64:	35 1f       	adc	r19, r21
 c66:	28 0f       	add	r18, r24
 c68:	39 1f       	adc	r19, r25
 c6a:	81 2f       	mov	r24, r17
 c6c:	90 e0       	ldi	r25, 0x00	; 0
 c6e:	28 17       	cp	r18, r24
 c70:	39 07       	cpc	r19, r25
 c72:	14 f0       	brlt	.+4      	; 0xc78 <dtoa_prf+0x1a0>
 c74:	20 e0       	ldi	r18, 0x00	; 0
 c76:	02 c0       	rjmp	.+4      	; 0xc7c <dtoa_prf+0x1a4>
 c78:	12 1b       	sub	r17, r18
 c7a:	21 2f       	mov	r18, r17
 c7c:	4b 2d       	mov	r20, r11
 c7e:	50 e0       	ldi	r21, 0x00	; 0
 c80:	ca 01       	movw	r24, r20
 c82:	80 71       	andi	r24, 0x10	; 16
 c84:	90 70       	andi	r25, 0x00	; 0
 c86:	b4 fc       	sbrc	r11, 4
 c88:	0d c0       	rjmp	.+26     	; 0xca4 <dtoa_prf+0x1cc>
 c8a:	b3 fc       	sbrc	r11, 3
 c8c:	0b c0       	rjmp	.+22     	; 0xca4 <dtoa_prf+0x1cc>
 c8e:	f6 01       	movw	r30, r12
 c90:	32 2f       	mov	r19, r18
 c92:	40 e2       	ldi	r20, 0x20	; 32
 c94:	02 c0       	rjmp	.+4      	; 0xc9a <dtoa_prf+0x1c2>
 c96:	41 93       	st	Z+, r20
 c98:	31 50       	subi	r19, 0x01	; 1
 c9a:	33 23       	and	r19, r19
 c9c:	e1 f7       	brne	.-8      	; 0xc96 <dtoa_prf+0x1be>
 c9e:	c2 0e       	add	r12, r18
 ca0:	d1 1c       	adc	r13, r1
 ca2:	01 c0       	rjmp	.+2      	; 0xca6 <dtoa_prf+0x1ce>
 ca4:	32 2f       	mov	r19, r18
 ca6:	aa 23       	and	r26, r26
 ca8:	19 f0       	breq	.+6      	; 0xcb0 <dtoa_prf+0x1d8>
 caa:	f6 01       	movw	r30, r12
 cac:	a1 93       	st	Z+, r26
 cae:	6f 01       	movw	r12, r30
 cb0:	89 2b       	or	r24, r25
 cb2:	11 f0       	breq	.+4      	; 0xcb8 <dtoa_prf+0x1e0>
 cb4:	13 2f       	mov	r17, r19
 cb6:	0a c0       	rjmp	.+20     	; 0xccc <dtoa_prf+0x1f4>
 cb8:	f6 01       	movw	r30, r12
 cba:	13 2f       	mov	r17, r19
 cbc:	80 e3       	ldi	r24, 0x30	; 48
 cbe:	02 c0       	rjmp	.+4      	; 0xcc4 <dtoa_prf+0x1ec>
 cc0:	81 93       	st	Z+, r24
 cc2:	11 50       	subi	r17, 0x01	; 1
 cc4:	11 23       	and	r17, r17
 cc6:	e1 f7       	brne	.-8      	; 0xcc0 <dtoa_prf+0x1e8>
 cc8:	c3 0e       	add	r12, r19
 cca:	d1 1c       	adc	r13, r1
 ccc:	09 2d       	mov	r16, r9
 cce:	06 0f       	add	r16, r22
 cd0:	ba 80       	ldd	r11, Y+2	; 0x02
 cd2:	90 e1       	ldi	r25, 0x10	; 16
 cd4:	89 2e       	mov	r8, r25
 cd6:	91 2c       	mov	r9, r1
 cd8:	8e 20       	and	r8, r14
 cda:	9f 20       	and	r9, r15
 cdc:	e4 fe       	sbrs	r14, 4
 cde:	04 c0       	rjmp	.+8      	; 0xce8 <dtoa_prf+0x210>
 ce0:	f1 e3       	ldi	r31, 0x31	; 49
 ce2:	bf 16       	cp	r11, r31
 ce4:	09 f4       	brne	.+2      	; 0xce8 <dtoa_prf+0x210>
 ce6:	01 50       	subi	r16, 0x01	; 1
 ce8:	10 16       	cp	r1, r16
 cea:	14 f0       	brlt	.+4      	; 0xcf0 <dtoa_prf+0x218>
 cec:	01 e0       	ldi	r16, 0x01	; 1
 cee:	03 c0       	rjmp	.+6      	; 0xcf6 <dtoa_prf+0x21e>
 cf0:	09 30       	cpi	r16, 0x09	; 9
 cf2:	08 f0       	brcs	.+2      	; 0xcf6 <dtoa_prf+0x21e>
 cf4:	08 e0       	ldi	r16, 0x08	; 8
 cf6:	9b 01       	movw	r18, r22
 cf8:	77 ff       	sbrs	r23, 7
 cfa:	02 c0       	rjmp	.+4      	; 0xd00 <dtoa_prf+0x228>
 cfc:	20 e0       	ldi	r18, 0x00	; 0
 cfe:	30 e0       	ldi	r19, 0x00	; 0
 d00:	cb 01       	movw	r24, r22
 d02:	01 96       	adiw	r24, 0x01	; 1
 d04:	82 1b       	sub	r24, r18
 d06:	93 0b       	sbc	r25, r19
 d08:	fe 01       	movw	r30, r28
 d0a:	31 96       	adiw	r30, 0x01	; 1
 d0c:	e8 0f       	add	r30, r24
 d0e:	f9 1f       	adc	r31, r25
 d10:	8e e2       	ldi	r24, 0x2E	; 46
 d12:	f8 2e       	mov	r15, r24
 d14:	3b 01       	movw	r6, r22
 d16:	60 1a       	sub	r6, r16
 d18:	71 08       	sbc	r7, r1
 d1a:	8a 2d       	mov	r24, r10
 d1c:	90 e0       	ldi	r25, 0x00	; 0
 d1e:	44 27       	eor	r20, r20
 d20:	55 27       	eor	r21, r21
 d22:	48 1b       	sub	r20, r24
 d24:	59 0b       	sbc	r21, r25
 d26:	8f ef       	ldi	r24, 0xFF	; 255
 d28:	2f 3f       	cpi	r18, 0xFF	; 255
 d2a:	38 07       	cpc	r19, r24
 d2c:	19 f4       	brne	.+6      	; 0xd34 <dtoa_prf+0x25c>
 d2e:	d6 01       	movw	r26, r12
 d30:	fd 92       	st	X+, r15
 d32:	6d 01       	movw	r12, r26
 d34:	62 17       	cp	r22, r18
 d36:	73 07       	cpc	r23, r19
 d38:	2c f0       	brlt	.+10     	; 0xd44 <dtoa_prf+0x26c>
 d3a:	62 16       	cp	r6, r18
 d3c:	73 06       	cpc	r7, r19
 d3e:	14 f4       	brge	.+4      	; 0xd44 <dtoa_prf+0x26c>
 d40:	80 81       	ld	r24, Z
 d42:	01 c0       	rjmp	.+2      	; 0xd46 <dtoa_prf+0x26e>
 d44:	80 e3       	ldi	r24, 0x30	; 48
 d46:	21 50       	subi	r18, 0x01	; 1
 d48:	30 40       	sbci	r19, 0x00	; 0
 d4a:	31 96       	adiw	r30, 0x01	; 1
 d4c:	24 17       	cp	r18, r20
 d4e:	35 07       	cpc	r19, r21
 d50:	24 f0       	brlt	.+8      	; 0xd5a <dtoa_prf+0x282>
 d52:	d6 01       	movw	r26, r12
 d54:	8d 93       	st	X+, r24
 d56:	6d 01       	movw	r12, r26
 d58:	e6 cf       	rjmp	.-52     	; 0xd26 <dtoa_prf+0x24e>
 d5a:	26 17       	cp	r18, r22
 d5c:	37 07       	cpc	r19, r23
 d5e:	49 f4       	brne	.+18     	; 0xd72 <dtoa_prf+0x29a>
 d60:	b5 e3       	ldi	r27, 0x35	; 53
 d62:	bb 15       	cp	r27, r11
 d64:	28 f0       	brcs	.+10     	; 0xd70 <dtoa_prf+0x298>
 d66:	bb 16       	cp	r11, r27
 d68:	21 f4       	brne	.+8      	; 0xd72 <dtoa_prf+0x29a>
 d6a:	81 14       	cp	r8, r1
 d6c:	91 04       	cpc	r9, r1
 d6e:	09 f4       	brne	.+2      	; 0xd72 <dtoa_prf+0x29a>
 d70:	81 e3       	ldi	r24, 0x31	; 49
 d72:	f6 01       	movw	r30, r12
 d74:	81 93       	st	Z+, r24
 d76:	d6 01       	movw	r26, r12
 d78:	81 2f       	mov	r24, r17
 d7a:	90 e2       	ldi	r25, 0x20	; 32
 d7c:	02 c0       	rjmp	.+4      	; 0xd82 <dtoa_prf+0x2aa>
 d7e:	9c 93       	st	X, r25
 d80:	81 50       	subi	r24, 0x01	; 1
 d82:	11 96       	adiw	r26, 0x01	; 1
 d84:	88 23       	and	r24, r24
 d86:	d9 f7       	brne	.-10     	; 0xd7e <dtoa_prf+0x2a6>
 d88:	e1 0f       	add	r30, r17
 d8a:	f1 1d       	adc	r31, r1
 d8c:	10 82       	st	Z, r1
 d8e:	20 e0       	ldi	r18, 0x00	; 0
 d90:	30 e0       	ldi	r19, 0x00	; 0
 d92:	c9 01       	movw	r24, r18
 d94:	29 96       	adiw	r28, 0x09	; 9
 d96:	ee e0       	ldi	r30, 0x0E	; 14
 d98:	0c 94 34 05 	jmp	0xa68	; 0xa68 <__epilogue_restores__+0x8>

00000d9c <__ftoa_engine>:
 d9c:	28 30       	cpi	r18, 0x08	; 8
 d9e:	08 f0       	brcs	.+2      	; 0xda2 <__ftoa_engine+0x6>
 da0:	27 e0       	ldi	r18, 0x07	; 7
 da2:	33 27       	eor	r19, r19
 da4:	da 01       	movw	r26, r20
 da6:	99 0f       	add	r25, r25
 da8:	31 1d       	adc	r19, r1
 daa:	87 fd       	sbrc	r24, 7
 dac:	91 60       	ori	r25, 0x01	; 1
 dae:	00 96       	adiw	r24, 0x00	; 0
 db0:	61 05       	cpc	r22, r1
 db2:	71 05       	cpc	r23, r1
 db4:	39 f4       	brne	.+14     	; 0xdc4 <__ftoa_engine+0x28>
 db6:	32 60       	ori	r19, 0x02	; 2
 db8:	2e 5f       	subi	r18, 0xFE	; 254
 dba:	3d 93       	st	X+, r19
 dbc:	30 e3       	ldi	r19, 0x30	; 48
 dbe:	2a 95       	dec	r18
 dc0:	e1 f7       	brne	.-8      	; 0xdba <__ftoa_engine+0x1e>
 dc2:	08 95       	ret
 dc4:	9f 3f       	cpi	r25, 0xFF	; 255
 dc6:	30 f0       	brcs	.+12     	; 0xdd4 <__ftoa_engine+0x38>
 dc8:	80 38       	cpi	r24, 0x80	; 128
 dca:	71 05       	cpc	r23, r1
 dcc:	61 05       	cpc	r22, r1
 dce:	09 f0       	breq	.+2      	; 0xdd2 <__ftoa_engine+0x36>
 dd0:	3c 5f       	subi	r19, 0xFC	; 252
 dd2:	3c 5f       	subi	r19, 0xFC	; 252
 dd4:	3d 93       	st	X+, r19
 dd6:	91 30       	cpi	r25, 0x01	; 1
 dd8:	08 f0       	brcs	.+2      	; 0xddc <__ftoa_engine+0x40>
 dda:	80 68       	ori	r24, 0x80	; 128
 ddc:	91 1d       	adc	r25, r1
 dde:	df 93       	push	r29
 de0:	cf 93       	push	r28
 de2:	1f 93       	push	r17
 de4:	0f 93       	push	r16
 de6:	ff 92       	push	r15
 de8:	ef 92       	push	r14
 dea:	19 2f       	mov	r17, r25
 dec:	98 7f       	andi	r25, 0xF8	; 248
 dee:	96 95       	lsr	r25
 df0:	e9 2f       	mov	r30, r25
 df2:	96 95       	lsr	r25
 df4:	96 95       	lsr	r25
 df6:	e9 0f       	add	r30, r25
 df8:	ff 27       	eor	r31, r31
 dfa:	e2 55       	subi	r30, 0x52	; 82
 dfc:	ff 4f       	sbci	r31, 0xFF	; 255
 dfe:	99 27       	eor	r25, r25
 e00:	33 27       	eor	r19, r19
 e02:	ee 24       	eor	r14, r14
 e04:	ff 24       	eor	r15, r15
 e06:	a7 01       	movw	r20, r14
 e08:	e7 01       	movw	r28, r14
 e0a:	05 90       	lpm	r0, Z+
 e0c:	08 94       	sec
 e0e:	07 94       	ror	r0
 e10:	28 f4       	brcc	.+10     	; 0xe1c <__ftoa_engine+0x80>
 e12:	36 0f       	add	r19, r22
 e14:	e7 1e       	adc	r14, r23
 e16:	f8 1e       	adc	r15, r24
 e18:	49 1f       	adc	r20, r25
 e1a:	51 1d       	adc	r21, r1
 e1c:	66 0f       	add	r22, r22
 e1e:	77 1f       	adc	r23, r23
 e20:	88 1f       	adc	r24, r24
 e22:	99 1f       	adc	r25, r25
 e24:	06 94       	lsr	r0
 e26:	a1 f7       	brne	.-24     	; 0xe10 <__ftoa_engine+0x74>
 e28:	05 90       	lpm	r0, Z+
 e2a:	07 94       	ror	r0
 e2c:	28 f4       	brcc	.+10     	; 0xe38 <__ftoa_engine+0x9c>
 e2e:	e7 0e       	add	r14, r23
 e30:	f8 1e       	adc	r15, r24
 e32:	49 1f       	adc	r20, r25
 e34:	56 1f       	adc	r21, r22
 e36:	c1 1d       	adc	r28, r1
 e38:	77 0f       	add	r23, r23
 e3a:	88 1f       	adc	r24, r24
 e3c:	99 1f       	adc	r25, r25
 e3e:	66 1f       	adc	r22, r22
 e40:	06 94       	lsr	r0
 e42:	a1 f7       	brne	.-24     	; 0xe2c <__ftoa_engine+0x90>
 e44:	05 90       	lpm	r0, Z+
 e46:	07 94       	ror	r0
 e48:	28 f4       	brcc	.+10     	; 0xe54 <__ftoa_engine+0xb8>
 e4a:	f8 0e       	add	r15, r24
 e4c:	49 1f       	adc	r20, r25
 e4e:	56 1f       	adc	r21, r22
 e50:	c7 1f       	adc	r28, r23
 e52:	d1 1d       	adc	r29, r1
 e54:	88 0f       	add	r24, r24
 e56:	99 1f       	adc	r25, r25
 e58:	66 1f       	adc	r22, r22
 e5a:	77 1f       	adc	r23, r23
 e5c:	06 94       	lsr	r0
 e5e:	a1 f7       	brne	.-24     	; 0xe48 <__ftoa_engine+0xac>
 e60:	05 90       	lpm	r0, Z+
 e62:	07 94       	ror	r0
 e64:	20 f4       	brcc	.+8      	; 0xe6e <__ftoa_engine+0xd2>
 e66:	49 0f       	add	r20, r25
 e68:	56 1f       	adc	r21, r22
 e6a:	c7 1f       	adc	r28, r23
 e6c:	d8 1f       	adc	r29, r24
 e6e:	99 0f       	add	r25, r25
 e70:	66 1f       	adc	r22, r22
 e72:	77 1f       	adc	r23, r23
 e74:	88 1f       	adc	r24, r24
 e76:	06 94       	lsr	r0
 e78:	a9 f7       	brne	.-22     	; 0xe64 <__ftoa_engine+0xc8>
 e7a:	84 91       	lpm	r24, Z+
 e7c:	10 95       	com	r17
 e7e:	17 70       	andi	r17, 0x07	; 7
 e80:	41 f0       	breq	.+16     	; 0xe92 <__ftoa_engine+0xf6>
 e82:	d6 95       	lsr	r29
 e84:	c7 95       	ror	r28
 e86:	57 95       	ror	r21
 e88:	47 95       	ror	r20
 e8a:	f7 94       	ror	r15
 e8c:	e7 94       	ror	r14
 e8e:	1a 95       	dec	r17
 e90:	c1 f7       	brne	.-16     	; 0xe82 <__ftoa_engine+0xe6>
 e92:	e4 e5       	ldi	r30, 0x54	; 84
 e94:	f0 e0       	ldi	r31, 0x00	; 0
 e96:	68 94       	set
 e98:	15 90       	lpm	r1, Z+
 e9a:	15 91       	lpm	r17, Z+
 e9c:	35 91       	lpm	r19, Z+
 e9e:	65 91       	lpm	r22, Z+
 ea0:	95 91       	lpm	r25, Z+
 ea2:	05 90       	lpm	r0, Z+
 ea4:	7f e2       	ldi	r23, 0x2F	; 47
 ea6:	73 95       	inc	r23
 ea8:	e1 18       	sub	r14, r1
 eaa:	f1 0a       	sbc	r15, r17
 eac:	43 0b       	sbc	r20, r19
 eae:	56 0b       	sbc	r21, r22
 eb0:	c9 0b       	sbc	r28, r25
 eb2:	d0 09       	sbc	r29, r0
 eb4:	c0 f7       	brcc	.-16     	; 0xea6 <__ftoa_engine+0x10a>
 eb6:	e1 0c       	add	r14, r1
 eb8:	f1 1e       	adc	r15, r17
 eba:	43 1f       	adc	r20, r19
 ebc:	56 1f       	adc	r21, r22
 ebe:	c9 1f       	adc	r28, r25
 ec0:	d0 1d       	adc	r29, r0
 ec2:	7e f4       	brtc	.+30     	; 0xee2 <__ftoa_engine+0x146>
 ec4:	70 33       	cpi	r23, 0x30	; 48
 ec6:	11 f4       	brne	.+4      	; 0xecc <__ftoa_engine+0x130>
 ec8:	8a 95       	dec	r24
 eca:	e6 cf       	rjmp	.-52     	; 0xe98 <__ftoa_engine+0xfc>
 ecc:	e8 94       	clt
 ece:	01 50       	subi	r16, 0x01	; 1
 ed0:	30 f0       	brcs	.+12     	; 0xede <__ftoa_engine+0x142>
 ed2:	08 0f       	add	r16, r24
 ed4:	0a f4       	brpl	.+2      	; 0xed8 <__ftoa_engine+0x13c>
 ed6:	00 27       	eor	r16, r16
 ed8:	02 17       	cp	r16, r18
 eda:	08 f4       	brcc	.+2      	; 0xede <__ftoa_engine+0x142>
 edc:	20 2f       	mov	r18, r16
 ede:	23 95       	inc	r18
 ee0:	02 2f       	mov	r16, r18
 ee2:	7a 33       	cpi	r23, 0x3A	; 58
 ee4:	28 f0       	brcs	.+10     	; 0xef0 <__ftoa_engine+0x154>
 ee6:	79 e3       	ldi	r23, 0x39	; 57
 ee8:	7d 93       	st	X+, r23
 eea:	2a 95       	dec	r18
 eec:	e9 f7       	brne	.-6      	; 0xee8 <__ftoa_engine+0x14c>
 eee:	10 c0       	rjmp	.+32     	; 0xf10 <__ftoa_engine+0x174>
 ef0:	7d 93       	st	X+, r23
 ef2:	2a 95       	dec	r18
 ef4:	89 f6       	brne	.-94     	; 0xe98 <__ftoa_engine+0xfc>
 ef6:	06 94       	lsr	r0
 ef8:	97 95       	ror	r25
 efa:	67 95       	ror	r22
 efc:	37 95       	ror	r19
 efe:	17 95       	ror	r17
 f00:	17 94       	ror	r1
 f02:	e1 18       	sub	r14, r1
 f04:	f1 0a       	sbc	r15, r17
 f06:	43 0b       	sbc	r20, r19
 f08:	56 0b       	sbc	r21, r22
 f0a:	c9 0b       	sbc	r28, r25
 f0c:	d0 09       	sbc	r29, r0
 f0e:	98 f0       	brcs	.+38     	; 0xf36 <__ftoa_engine+0x19a>
 f10:	23 95       	inc	r18
 f12:	7e 91       	ld	r23, -X
 f14:	73 95       	inc	r23
 f16:	7a 33       	cpi	r23, 0x3A	; 58
 f18:	08 f0       	brcs	.+2      	; 0xf1c <__ftoa_engine+0x180>
 f1a:	70 e3       	ldi	r23, 0x30	; 48
 f1c:	7c 93       	st	X, r23
 f1e:	20 13       	cpse	r18, r16
 f20:	b8 f7       	brcc	.-18     	; 0xf10 <__ftoa_engine+0x174>
 f22:	7e 91       	ld	r23, -X
 f24:	70 61       	ori	r23, 0x10	; 16
 f26:	7d 93       	st	X+, r23
 f28:	30 f0       	brcs	.+12     	; 0xf36 <__ftoa_engine+0x19a>
 f2a:	83 95       	inc	r24
 f2c:	71 e3       	ldi	r23, 0x31	; 49
 f2e:	7d 93       	st	X+, r23
 f30:	70 e3       	ldi	r23, 0x30	; 48
 f32:	2a 95       	dec	r18
 f34:	e1 f7       	brne	.-8      	; 0xf2e <__ftoa_engine+0x192>
 f36:	11 24       	eor	r1, r1
 f38:	ef 90       	pop	r14
 f3a:	ff 90       	pop	r15
 f3c:	0f 91       	pop	r16
 f3e:	1f 91       	pop	r17
 f40:	cf 91       	pop	r28
 f42:	df 91       	pop	r29
 f44:	99 27       	eor	r25, r25
 f46:	87 fd       	sbrc	r24, 7
 f48:	90 95       	com	r25
 f4a:	08 95       	ret

00000f4c <_exit>:
 f4c:	f8 94       	cli

00000f4e <__stop_program>:
 f4e:	ff cf       	rjmp	.-2      	; 0xf4e <__stop_program>
